
nbench:     file format elf64-x86-64


Disassembly of section .text:

0000000034800120 <SetupCPUEmFloatArrays>:
    34800120:	41 54                	push   %r12
    34800122:	53                   	push   %rbx
    34800123:	48 83 ec 28          	sub    $0x28,%rsp
    34800127:	48 89 0c 24          	mov    %rcx,(%rsp)
    3480012b:	48 89 f3             	mov    %rsi,%rbx
    3480012e:	49 89 fc             	mov    %rdi,%r12
    34800131:	bf 0d 00 00 00       	mov    $0xd,%edi
    34800136:	e8 d5 10 00 00       	callq  34801210 <randnum>
    3480013b:	48 8b 04 24          	mov    (%rsp),%rax
    3480013f:	48 85 c0             	test   %rax,%rax
    34800142:	0f 84 8f 00 00 00    	je     348001d7 <SetupCPUEmFloatArrays+0xb7>
    34800148:	0f 1f 84 00 00 00 00 	nopl   0x0(%rax,%rax,1)
    3480014f:	00 
    34800150:	48 89 04 24          	mov    %rax,(%rsp)
    34800154:	bf 50 c3 00 00       	mov    $0xc350,%edi
    34800159:	e8 92 10 00 00       	callq  348011f0 <randwc>
    3480015e:	89 c7                	mov    %eax,%edi
    34800160:	48 8d 44 24 18       	lea    0x18(%rsp),%rax
    34800165:	48 89 c6             	mov    %rax,%rsi
    34800168:	e8 73 00 00 00       	callq  348001e0 <Int32ToInternalFPF>
    3480016d:	bf 50 c3 00 00       	mov    $0xc350,%edi
    34800172:	e8 79 10 00 00       	callq  348011f0 <randwc>
    34800177:	8d 78 01             	lea    0x1(%rax),%edi
    3480017a:	48 8d 44 24 08       	lea    0x8(%rsp),%rax
    3480017f:	48 89 c6             	mov    %rax,%rsi
    34800182:	e8 59 00 00 00       	callq  348001e0 <Int32ToInternalFPF>
    34800187:	48 8d 7c 24 18       	lea    0x18(%rsp),%rdi
    3480018c:	48 8d 74 24 08       	lea    0x8(%rsp),%rsi
    34800191:	4c 89 e2             	mov    %r12,%rdx
    34800194:	e8 97 00 00 00       	callq  34800230 <DivideInternalFPF>
    34800199:	bf 50 c3 00 00       	mov    $0xc350,%edi
    3480019e:	e8 4d 10 00 00       	callq  348011f0 <randwc>
    348001a3:	8d 78 01             	lea    0x1(%rax),%edi
    348001a6:	48 8d 74 24 08       	lea    0x8(%rsp),%rsi
    348001ab:	e8 30 00 00 00       	callq  348001e0 <Int32ToInternalFPF>
    348001b0:	48 8d 7c 24 18       	lea    0x18(%rsp),%rdi
    348001b5:	48 8d 74 24 08       	lea    0x8(%rsp),%rsi
    348001ba:	48 89 da             	mov    %rbx,%rdx
    348001bd:	e8 6e 00 00 00       	callq  34800230 <DivideInternalFPF>
    348001c2:	48 8b 04 24          	mov    (%rsp),%rax
    348001c6:	49 83 c4 0c          	add    $0xc,%r12
    348001ca:	48 83 c3 0c          	add    $0xc,%rbx
    348001ce:	48 ff c8             	dec    %rax
    348001d1:	0f 85 79 ff ff ff    	jne    34800150 <SetupCPUEmFloatArrays+0x30>
    348001d7:	48 83 c4 28          	add    $0x28,%rsp
    348001db:	5b                   	pop    %rbx
    348001dc:	41 5c                	pop    %r12
    348001de:	c3                   	retq   
    348001df:	90                   	nop

00000000348001e0 <Int32ToInternalFPF>:
    348001e0:	85 ff                	test   %edi,%edi
    348001e2:	0f 88 09 00 00 00    	js     348001f1 <Int32ToInternalFPF+0x11>
    348001e8:	c6 46 01 00          	movb   $0x0,0x1(%rsi)
    348001ec:	e9 06 00 00 00       	jmpq   348001f7 <Int32ToInternalFPF+0x17>
    348001f1:	c6 46 01 01          	movb   $0x1,0x1(%rsi)
    348001f5:	f7 df                	neg    %edi
    348001f7:	c6 06 02             	movb   $0x2,(%rsi)
    348001fa:	48 c7 46 04 00 00 00 	movq   $0x0,0x4(%rsi)
    34800201:	00 
    34800202:	85 ff                	test   %edi,%edi
    34800204:	0f 84 1b 00 00 00    	je     34800225 <Int32ToInternalFPF+0x45>
    3480020a:	66 c7 46 02 20 00    	movw   $0x20,0x2(%rsi)
    34800210:	89 f8                	mov    %edi,%eax
    34800212:	c1 e8 10             	shr    $0x10,%eax
    34800215:	66 89 46 04          	mov    %ax,0x4(%rsi)
    34800219:	66 89 7e 06          	mov    %di,0x6(%rsi)
    3480021d:	48 89 f7             	mov    %rsi,%rdi
    34800220:	e9 8b 0e 00 00       	jmpq   348010b0 <normalize>
    34800225:	c6 06 00             	movb   $0x0,(%rsi)
    34800228:	66 c7 46 02 00 00    	movw   $0x0,0x2(%rsi)
    3480022e:	c3                   	retq   
    3480022f:	90                   	nop

0000000034800230 <DivideInternalFPF>:
    34800230:	41 54                	push   %r12
    34800232:	53                   	push   %rbx
    34800233:	48 83 ec 48          	sub    $0x48,%rsp
    34800237:	48 89 54 24 08       	mov    %rdx,0x8(%rsp)
    3480023c:	49 89 fc             	mov    %rdi,%r12
    3480023f:	41 0f b6 1c 24       	movzbl (%r12),%ebx
    34800244:	8d 0c 9b             	lea    (%rbx,%rbx,4),%ecx
    34800247:	0f b6 06             	movzbl (%rsi),%eax
    3480024a:	01 c8                	add    %ecx,%eax
    3480024c:	83 f8 0c             	cmp    $0xc,%eax
    3480024f:	48 89 74 24 10       	mov    %rsi,0x10(%rsp)
    34800254:	0f bf c8             	movswl %ax,%ecx
    34800257:	0f 8f 40 00 00 00    	jg     3480029d <DivideInternalFPF+0x6d>
    3480025d:	83 f9 05             	cmp    $0x5,%ecx
    34800260:	0f 8e 7a 00 00 00    	jle    348002e0 <DivideInternalFPF+0xb0>
    34800266:	83 f9 08             	cmp    $0x8,%ecx
    34800269:	0f 8e cc 00 00 00    	jle    3480033b <DivideInternalFPF+0x10b>
    3480026f:	8d 48 f5             	lea    -0xb(%rax),%ecx
    34800272:	0f b7 c9             	movzwl %cx,%ecx
    34800275:	83 f9 02             	cmp    $0x2,%ecx
    34800278:	0f 82 cc 00 00 00    	jb     3480034a <DivideInternalFPF+0x11a>
    3480027e:	0f b7 c0             	movzwl %ax,%eax
    34800281:	83 f8 09             	cmp    $0x9,%eax
    34800284:	48 8b 5c 24 08       	mov    0x8(%rsp),%rbx
    34800289:	0f 84 8b 01 00 00    	je     3480041a <DivideInternalFPF+0x1ea>
    3480028f:	83 f8 0a             	cmp    $0xa,%eax
    34800292:	0f 84 20 01 00 00    	je     348003b8 <DivideInternalFPF+0x188>
    34800298:	e9 09 02 00 00       	jmpq   348004a6 <DivideInternalFPF+0x276>
    3480029d:	83 f9 12             	cmp    $0x12,%ecx
    348002a0:	0f 8f 6d 00 00 00    	jg     34800313 <DivideInternalFPF+0xe3>
    348002a6:	83 f9 0e             	cmp    $0xe,%ecx
    348002a9:	0f 8e 51 01 00 00    	jle    34800400 <DivideInternalFPF+0x1d0>
    348002af:	8d 48 f1             	lea    -0xf(%rax),%ecx
    348002b2:	0f b7 c9             	movzwl %cx,%ecx
    348002b5:	83 f9 03             	cmp    $0x3,%ecx
    348002b8:	48 8b 5c 24 08       	mov    0x8(%rsp),%rbx
    348002bd:	0f 83 87 01 00 00    	jae    3480044a <DivideInternalFPF+0x21a>
    348002c3:	48 89 df             	mov    %rbx,%rdi
    348002c6:	e8 15 0f 00 00       	callq  348011e0 <SetInternalFPFInfinity>
    348002cb:	48 8b 44 24 10       	mov    0x10(%rsp),%rax
    348002d0:	8a 40 01             	mov    0x1(%rax),%al
    348002d3:	41 32 44 24 01       	xor    0x1(%r12),%al
    348002d8:	88 43 01             	mov    %al,0x1(%rbx)
    348002db:	e9 c6 01 00 00       	jmpq   348004a6 <DivideInternalFPF+0x276>
    348002e0:	83 f9 02             	cmp    $0x2,%ecx
    348002e3:	0f 8f ac 00 00 00    	jg     34800395 <DivideInternalFPF+0x165>
    348002e9:	8d 48 ff             	lea    -0x1(%rax),%ecx
    348002ec:	0f b7 c9             	movzwl %cx,%ecx
    348002ef:	83 f9 02             	cmp    $0x2,%ecx
    348002f2:	48 8b 5c 24 08       	mov    0x8(%rsp),%rbx
    348002f7:	0f 83 5e 01 00 00    	jae    3480045b <DivideInternalFPF+0x22b>
    348002fd:	48 8d 7e 04          	lea    0x4(%rsi),%rdi
    34800301:	e8 5a 0c 00 00       	callq  34800f60 <IsMantissaZero>
    34800306:	85 c0                	test   %eax,%eax
    34800308:	0f 85 56 01 00 00    	jne    34800464 <DivideInternalFPF+0x234>
    3480030e:	e9 6f 01 00 00       	jmpq   34800482 <DivideInternalFPF+0x252>
    34800313:	8d 48 ec             	lea    -0x14(%rax),%ecx
    34800316:	0f b7 c9             	movzwl %cx,%ecx
    34800319:	83 f9 04             	cmp    $0x4,%ecx
    3480031c:	0f 83 ad 00 00 00    	jae    348003cf <DivideInternalFPF+0x19f>
    34800322:	48 8b 5c 24 08       	mov    0x8(%rsp),%rbx
    34800327:	48 8b 03             	mov    (%rbx),%rax
    3480032a:	8b 4b 08             	mov    0x8(%rbx),%ecx
    3480032d:	41 89 4c 24 08       	mov    %ecx,0x8(%r12)
    34800332:	49 89 04 24          	mov    %rax,(%r12)
    34800336:	e9 6b 01 00 00       	jmpq   348004a6 <DivideInternalFPF+0x276>
    3480033b:	8d 48 fa             	lea    -0x6(%rax),%ecx
    3480033e:	0f b7 c9             	movzwl %cx,%ecx
    34800341:	83 f9 02             	cmp    $0x2,%ecx
    34800344:	0f 83 27 01 00 00    	jae    34800471 <DivideInternalFPF+0x241>
    3480034a:	41 8b 44 24 08       	mov    0x8(%r12),%eax
    3480034f:	89 44 24 30          	mov    %eax,0x30(%rsp)
    34800353:	49 8b 04 24          	mov    (%r12),%rax
    34800357:	48 89 44 24 28       	mov    %rax,0x28(%rsp)
    3480035c:	48 8d 7c 24 2c       	lea    0x2c(%rsp),%rdi
    34800361:	e8 fa 0b 00 00       	callq  34800f60 <IsMantissaZero>
    34800366:	89 44 24 18          	mov    %eax,0x18(%rsp)
    3480036a:	48 8b 44 24 10       	mov    0x10(%rsp),%rax
    3480036f:	48 8d 78 04          	lea    0x4(%rax),%rdi
    34800373:	e8 e8 0b 00 00       	callq  34800f60 <IsMantissaZero>
    34800378:	83 7c 24 18 00       	cmpl   $0x0,0x18(%rsp)
    3480037d:	0f 84 ad 00 00 00    	je     34800430 <DivideInternalFPF+0x200>
    34800383:	85 c0                	test   %eax,%eax
    34800385:	0f 84 0c 01 00 00    	je     34800497 <DivideInternalFPF+0x267>
    3480038b:	48 8b 5c 24 08       	mov    0x8(%rsp),%rbx
    34800390:	e9 cf 00 00 00       	jmpq   34800464 <DivideInternalFPF+0x234>
    34800395:	0f b7 c0             	movzwl %ax,%eax
    34800398:	83 f8 03             	cmp    $0x3,%eax
    3480039b:	48 8b 5c 24 08       	mov    0x8(%rsp),%rbx
    348003a0:	0f 84 dc 00 00 00    	je     34800482 <DivideInternalFPF+0x252>
    348003a6:	83 f8 04             	cmp    $0x4,%eax
    348003a9:	0f 84 6b 00 00 00    	je     3480041a <DivideInternalFPF+0x1ea>
    348003af:	83 f8 05             	cmp    $0x5,%eax
    348003b2:	0f 85 ee 00 00 00    	jne    348004a6 <DivideInternalFPF+0x276>
    348003b8:	49 8d 7c 24 04       	lea    0x4(%r12),%rdi
    348003bd:	e8 9e 0b 00 00       	callq  34800f60 <IsMantissaZero>
    348003c2:	85 c0                	test   %eax,%eax
    348003c4:	0f 85 9a 00 00 00    	jne    34800464 <DivideInternalFPF+0x234>
    348003ca:	e9 f4 fe ff ff       	jmpq   348002c3 <DivideInternalFPF+0x93>
    348003cf:	0f b7 c0             	movzwl %ax,%eax
    348003d2:	83 f8 13             	cmp    $0x13,%eax
    348003d5:	48 8b 5c 24 08       	mov    0x8(%rsp),%rbx
    348003da:	0f 84 3a 00 00 00    	je     3480041a <DivideInternalFPF+0x1ea>
    348003e0:	83 f8 18             	cmp    $0x18,%eax
    348003e3:	0f 85 bd 00 00 00    	jne    348004a6 <DivideInternalFPF+0x276>
    348003e9:	31 c9                	xor    %ecx,%ecx
    348003eb:	4c 89 e7             	mov    %r12,%rdi
    348003ee:	48 8b 74 24 10       	mov    0x10(%rsp),%rsi
    348003f3:	48 89 da             	mov    %rbx,%rdx
    348003f6:	e8 45 0d 00 00       	callq  34801140 <choose_nan>
    348003fb:	e9 a6 00 00 00       	jmpq   348004a6 <DivideInternalFPF+0x276>
    34800400:	0f b7 c0             	movzwl %ax,%eax
    34800403:	83 f8 0d             	cmp    $0xd,%eax
    34800406:	48 8b 5c 24 08       	mov    0x8(%rsp),%rbx
    3480040b:	0f 84 71 00 00 00    	je     34800482 <DivideInternalFPF+0x252>
    34800411:	83 f8 0e             	cmp    $0xe,%eax
    34800414:	0f 85 8c 00 00 00    	jne    348004a6 <DivideInternalFPF+0x276>
    3480041a:	48 8b 03             	mov    (%rbx),%rax
    3480041d:	8b 4b 08             	mov    0x8(%rbx),%ecx
    34800420:	48 8b 54 24 10       	mov    0x10(%rsp),%rdx
    34800425:	89 4a 08             	mov    %ecx,0x8(%rdx)
    34800428:	48 89 02             	mov    %rax,(%rdx)
    3480042b:	e9 76 00 00 00       	jmpq   348004a6 <DivideInternalFPF+0x276>
    34800430:	85 c0                	test   %eax,%eax
    34800432:	0f 84 7e 00 00 00    	je     348004b6 <DivideInternalFPF+0x286>
    34800438:	48 8b 5c 24 08       	mov    0x8(%rsp),%rbx
    3480043d:	48 89 df             	mov    %rbx,%rdi
    34800440:	e8 9b 0d 00 00       	callq  348011e0 <SetInternalFPFInfinity>
    34800445:	e9 5c 00 00 00       	jmpq   348004a6 <DivideInternalFPF+0x276>
    3480044a:	0f b7 c0             	movzwl %ax,%eax
    3480044d:	83 f8 12             	cmp    $0x12,%eax
    34800450:	0f 84 0e 00 00 00    	je     34800464 <DivideInternalFPF+0x234>
    34800456:	e9 4b 00 00 00       	jmpq   348004a6 <DivideInternalFPF+0x276>
    3480045b:	66 85 c0             	test   %ax,%ax
    3480045e:	0f 85 42 00 00 00    	jne    348004a6 <DivideInternalFPF+0x276>
    34800464:	48 89 df             	mov    %rbx,%rdi
    34800467:	e8 b4 0c 00 00       	callq  34801120 <SetInternalFPFNaN>
    3480046c:	e9 35 00 00 00       	jmpq   348004a6 <DivideInternalFPF+0x276>
    34800471:	0f b7 c0             	movzwl %ax,%eax
    34800474:	83 f8 08             	cmp    $0x8,%eax
    34800477:	48 8b 5c 24 08       	mov    0x8(%rsp),%rbx
    3480047c:	0f 85 24 00 00 00    	jne    348004a6 <DivideInternalFPF+0x276>
    34800482:	48 8b 44 24 10       	mov    0x10(%rsp),%rax
    34800487:	8a 40 01             	mov    0x1(%rax),%al
    3480048a:	41 32 44 24 01       	xor    0x1(%r12),%al
    3480048f:	0f b6 f0             	movzbl %al,%esi
    34800492:	e9 07 00 00 00       	jmpq   3480049e <DivideInternalFPF+0x26e>
    34800497:	31 f6                	xor    %esi,%esi
    34800499:	48 8b 5c 24 08       	mov    0x8(%rsp),%rbx
    3480049e:	48 89 df             	mov    %rbx,%rdi
    348004a1:	e8 ea 0a 00 00       	callq  34800f90 <SetInternalFPFZero>
    348004a6:	48 89 df             	mov    %rbx,%rdi
    348004a9:	e8 32 0a 00 00       	callq  34800ee0 <RoundInternalFPF>
    348004ae:	48 83 c4 48          	add    $0x48,%rsp
    348004b2:	5b                   	pop    %rbx
    348004b3:	41 5c                	pop    %r12
    348004b5:	c3                   	retq   
    348004b6:	48 8b 44 24 08       	mov    0x8(%rsp),%rax
    348004bb:	88 18                	mov    %bl,(%rax)
    348004bd:	48 89 c3             	mov    %rax,%rbx
    348004c0:	48 8b 4c 24 10       	mov    0x10(%rsp),%rcx
    348004c5:	8a 41 01             	mov    0x1(%rcx),%al
    348004c8:	41 32 44 24 01       	xor    0x1(%r12),%al
    348004cd:	88 43 01             	mov    %al,0x1(%rbx)
    348004d0:	41 0f b7 44 24 02    	movzwl 0x2(%r12),%eax
    348004d6:	83 e8 80             	sub    $0xffffff80,%eax
    348004d9:	66 2b 41 02          	sub    0x2(%rcx),%ax
    348004dd:	66 89 43 02          	mov    %ax,0x2(%rbx)
    348004e1:	48 8d 43 04          	lea    0x4(%rbx),%rax
    348004e5:	48 89 44 24 40       	mov    %rax,0x40(%rsp)
    348004ea:	48 c7 43 04 00 00 00 	movq   $0x0,0x4(%rbx)
    348004f1:	00 
    348004f2:	48 c7 44 24 20 00 00 	movq   $0x0,0x20(%rsp)
    348004f9:	00 00 
    348004fb:	48 8d 41 0a          	lea    0xa(%rcx),%rax
    348004ff:	48 89 44 24 38       	mov    %rax,0x38(%rsp)
    34800504:	4c 8d 64 24 06       	lea    0x6(%rsp),%r12
    34800509:	e9 42 00 00 00       	jmpq   34800550 <DivideInternalFPF+0x320>
    3480050e:	66 90                	xchg   %ax,%ax
    34800510:	48 c7 c0 ff ff ff ff 	mov    $0xffffffffffffffff,%rax
    34800517:	66 0f 1f 84 00 00 00 	nopw   0x0(%rax,%rax,1)
    3480051e:	00 00 
    34800520:	0f b7 4c 44 22       	movzwl 0x22(%rsp,%rax,2),%ecx
    34800525:	66 39 4c 42 06       	cmp    %cx,0x6(%rdx,%rax,2)
    3480052a:	0f 87 18 00 00 00    	ja     34800548 <DivideInternalFPF+0x318>
    34800530:	0f 82 4c 00 00 00    	jb     34800582 <DivideInternalFPF+0x352>
    34800536:	48 ff c0             	inc    %rax
    34800539:	48 83 f8 02          	cmp    $0x2,%rax
    3480053d:	0f 8e dd ff ff ff    	jle    34800520 <DivideInternalFPF+0x2f0>
    34800543:	e9 3a 00 00 00       	jmpq   34800582 <DivideInternalFPF+0x352>
    34800548:	31 c0                	xor    %eax,%eax
    3480054a:	e9 8a 00 00 00       	jmpq   348005d9 <DivideInternalFPF+0x3a9>
    3480054f:	90                   	nop
    34800550:	66 c7 44 24 06 00 00 	movw   $0x0,0x6(%rsp)
    34800557:	4c 89 e7             	mov    %r12,%rdi
    3480055a:	48 8d 74 24 2c       	lea    0x2c(%rsp),%rsi
    3480055f:	e8 3c 0c 00 00       	callq  348011a0 <ShiftMantLeft1>
    34800564:	4c 89 e7             	mov    %r12,%rdi
    34800567:	48 8d 74 24 20       	lea    0x20(%rsp),%rsi
    3480056c:	e8 2f 0c 00 00       	callq  348011a0 <ShiftMantLeft1>
    34800571:	66 83 7c 24 06 00    	cmpw   $0x0,0x6(%rsp)
    34800577:	48 8b 54 24 10       	mov    0x10(%rsp),%rdx
    3480057c:	0f 84 8e ff ff ff    	je     34800510 <DivideInternalFPF+0x2e0>
    34800582:	66 c7 44 24 06 00 00 	movw   $0x0,0x6(%rsp)
    34800589:	4c 8b 64 24 38       	mov    0x38(%rsp),%r12
    3480058e:	48 8d 5c 24 26       	lea    0x26(%rsp),%rbx
    34800593:	b9 04 00 00 00       	mov    $0x4,%ecx
    34800598:	0f 1f 84 00 00 00 00 	nopl   0x0(%rax,%rax,1)
    3480059f:	00 
    348005a0:	48 89 4c 24 18       	mov    %rcx,0x18(%rsp)
    348005a5:	41 0f b7 0c 24       	movzwl (%r12),%ecx
    348005aa:	0f b7 13             	movzwl (%rbx),%edx
    348005ad:	48 8d 7c 24 06       	lea    0x6(%rsp),%rdi
    348005b2:	48 89 de             	mov    %rbx,%rsi
    348005b5:	e8 d6 0a 00 00       	callq  34801090 <Sub16Bits>
    348005ba:	48 8b 4c 24 18       	mov    0x18(%rsp),%rcx
    348005bf:	48 83 c3 fe          	add    $0xfffffffffffffffe,%rbx
    348005c3:	49 83 c4 fe          	add    $0xfffffffffffffffe,%r12
    348005c7:	48 ff c9             	dec    %rcx
    348005ca:	0f 8f d0 ff ff ff    	jg     348005a0 <DivideInternalFPF+0x370>
    348005d0:	66 b8 01 00          	mov    $0x1,%ax
    348005d4:	48 8b 5c 24 08       	mov    0x8(%rsp),%rbx
    348005d9:	66 89 44 24 06       	mov    %ax,0x6(%rsp)
    348005de:	48 8d 7c 24 06       	lea    0x6(%rsp),%rdi
    348005e3:	48 8b 74 24 40       	mov    0x40(%rsp),%rsi
    348005e8:	e8 b3 0b 00 00       	callq  348011a0 <ShiftMantLeft1>
    348005ed:	4c 8d 64 24 06       	lea    0x6(%rsp),%r12
    348005f2:	66 ff 4b 02          	decw   0x2(%rbx)
    348005f6:	66 83 7b 04 00       	cmpw   $0x0,0x4(%rbx)
    348005fb:	0f 89 4f ff ff ff    	jns    34800550 <DivideInternalFPF+0x320>
    34800601:	e9 a0 fe ff ff       	jmpq   348004a6 <DivideInternalFPF+0x276>
    34800606:	66 2e 0f 1f 84 00 00 	nopw   %cs:0x0(%rax,%rax,1)
    3480060d:	00 00 00 

0000000034800610 <DoEmFloatIteration>:
    34800610:	41 54                	push   %r12
    34800612:	53                   	push   %rbx
    34800613:	48 83 ec 48          	sub    $0x48,%rsp
    34800617:	4c 89 c3             	mov    %r8,%rbx
    3480061a:	48 89 4c 24 18       	mov    %rcx,0x18(%rsp)
    3480061f:	48 89 54 24 38       	mov    %rdx,0x38(%rsp)
    34800624:	48 89 74 24 30       	mov    %rsi,0x30(%rsp)
    34800629:	48 89 7c 24 28       	mov    %rdi,0x28(%rsp)
    3480062e:	31 c0                	xor    %eax,%eax
    34800630:	e8 9b 69 00 00       	callq  34806fd0 <StartStopwatch>
    34800635:	48 89 44 24 20       	mov    %rax,0x20(%rsp)
    3480063a:	48 85 db             	test   %rbx,%rbx
    3480063d:	0f 85 1b 00 00 00    	jne    3480065e <DoEmFloatIteration+0x4e>
    34800643:	e9 19 01 00 00       	jmpq   34800761 <DoEmFloatIteration+0x151>
    34800648:	0f 1f 84 00 00 00 00 	nopl   0x0(%rax,%rax,1)
    3480064f:	00 
    34800650:	48 8b 5c 24 40       	mov    0x40(%rsp),%rbx
    34800655:	48 85 db             	test   %rbx,%rbx
    34800658:	0f 84 03 01 00 00    	je     34800761 <DoEmFloatIteration+0x151>
    3480065e:	48 ff cb             	dec    %rbx
    34800661:	48 89 5c 24 40       	mov    %rbx,0x40(%rsp)
    34800666:	48 83 7c 24 18 00    	cmpq   $0x0,0x18(%rsp)
    3480066c:	0f 84 de ff ff ff    	je     34800650 <DoEmFloatIteration+0x40>
    34800672:	48 8b 4c 24 38       	mov    0x38(%rsp),%rcx
    34800677:	48 8b 54 24 30       	mov    0x30(%rsp),%rdx
    3480067c:	4c 8b 64 24 28       	mov    0x28(%rsp),%r12
    34800681:	31 db                	xor    %ebx,%ebx
    34800683:	66 66 66 66 2e 0f 1f 	data16 data16 data16 nopw %cs:0x0(%rax,%rax,1)
    3480068a:	84 00 00 00 00 00 
    34800690:	89 d8                	mov    %ebx,%eax
    34800692:	83 e0 0f             	and    $0xf,%eax
    34800695:	0f b6 80 20 2f 81 34 	movzbl 0x34812f20(%rax),%eax
    3480069c:	3c 01                	cmp    $0x1,%al
    3480069e:	0f 8f 1c 00 00 00    	jg     348006c0 <DoEmFloatIteration+0xb0>
    348006a4:	84 c0                	test   %al,%al
    348006a6:	0f 84 44 00 00 00    	je     348006f0 <DoEmFloatIteration+0xe0>
    348006ac:	3c 01                	cmp    $0x1,%al
    348006ae:	0f 85 8e 00 00 00    	jne    34800742 <DoEmFloatIteration+0x132>
    348006b4:	bf 01 00 00 00       	mov    $0x1,%edi
    348006b9:	e9 34 00 00 00       	jmpq   348006f2 <DoEmFloatIteration+0xe2>
    348006be:	66 90                	xchg   %ax,%ax
    348006c0:	3c 02                	cmp    $0x2,%al
    348006c2:	0f 84 58 00 00 00    	je     34800720 <DoEmFloatIteration+0x110>
    348006c8:	3c 03                	cmp    $0x3,%al
    348006ca:	0f 85 72 00 00 00    	jne    34800742 <DoEmFloatIteration+0x132>
    348006d0:	4c 89 e7             	mov    %r12,%rdi
    348006d3:	48 89 d6             	mov    %rdx,%rsi
    348006d6:	48 89 54 24 08       	mov    %rdx,0x8(%rsp)
    348006db:	48 89 ca             	mov    %rcx,%rdx
    348006de:	48 89 4c 24 10       	mov    %rcx,0x10(%rsp)
    348006e3:	e8 48 fb ff ff       	callq  34800230 <DivideInternalFPF>
    348006e8:	e9 4b 00 00 00       	jmpq   34800738 <DoEmFloatIteration+0x128>
    348006ed:	0f 1f 00             	nopl   (%rax)
    348006f0:	31 ff                	xor    %edi,%edi
    348006f2:	4c 89 e6             	mov    %r12,%rsi
    348006f5:	48 89 54 24 08       	mov    %rdx,0x8(%rsp)
    348006fa:	48 8b 54 24 08       	mov    0x8(%rsp),%rdx
    348006ff:	48 89 4c 24 10       	mov    %rcx,0x10(%rsp)
    34800704:	48 8b 4c 24 10       	mov    0x10(%rsp),%rcx
    34800709:	e8 72 00 00 00       	callq  34800780 <AddSubInternalFPF>
    3480070e:	e9 25 00 00 00       	jmpq   34800738 <DoEmFloatIteration+0x128>
    34800713:	66 66 66 66 2e 0f 1f 	data16 data16 data16 nopw %cs:0x0(%rax,%rax,1)
    3480071a:	84 00 00 00 00 00 
    34800720:	4c 89 e7             	mov    %r12,%rdi
    34800723:	48 89 d6             	mov    %rdx,%rsi
    34800726:	48 89 54 24 08       	mov    %rdx,0x8(%rsp)
    3480072b:	48 89 ca             	mov    %rcx,%rdx
    3480072e:	48 89 4c 24 10       	mov    %rcx,0x10(%rsp)
    34800733:	e8 38 04 00 00       	callq  34800b70 <MultiplyInternalFPF>
    34800738:	48 8b 54 24 08       	mov    0x8(%rsp),%rdx
    3480073d:	48 8b 4c 24 10       	mov    0x10(%rsp),%rcx
    34800742:	48 ff c3             	inc    %rbx
    34800745:	49 83 c4 0c          	add    $0xc,%r12
    34800749:	48 83 c2 0c          	add    $0xc,%rdx
    3480074d:	48 83 c1 0c          	add    $0xc,%rcx
    34800751:	48 39 5c 24 18       	cmp    %rbx,0x18(%rsp)
    34800756:	0f 85 34 ff ff ff    	jne    34800690 <DoEmFloatIteration+0x80>
    3480075c:	e9 ef fe ff ff       	jmpq   34800650 <DoEmFloatIteration+0x40>
    34800761:	48 8b 7c 24 20       	mov    0x20(%rsp),%rdi
    34800766:	48 83 c4 48          	add    $0x48,%rsp
    3480076a:	5b                   	pop    %rbx
    3480076b:	41 5c                	pop    %r12
    3480076d:	e9 6e 68 00 00       	jmpq   34806fe0 <StopStopwatch>
    34800772:	66 66 66 66 66 2e 0f 	data16 data16 data16 data16 nopw %cs:0x0(%rax,%rax,1)
    34800779:	1f 84 00 00 00 00 00 

0000000034800780 <AddSubInternalFPF>:
    34800780:	41 54                	push   %r12
    34800782:	53                   	push   %rbx
    34800783:	48 83 ec 38          	sub    $0x38,%rsp
    34800787:	48 89 cb             	mov    %rcx,%rbx
    3480078a:	0f b6 06             	movzbl (%rsi),%eax
    3480078d:	8d 0c 80             	lea    (%rax,%rax,4),%ecx
    34800790:	0f b6 02             	movzbl (%rdx),%eax
    34800793:	01 c8                	add    %ecx,%eax
    34800795:	0f bf c8             	movswl %ax,%ecx
    34800798:	83 f8 0c             	cmp    $0xc,%eax
    3480079b:	0f 8f 3b 00 00 00    	jg     348007dc <AddSubInternalFPF+0x5c>
    348007a1:	83 f9 05             	cmp    $0x5,%ecx
    348007a4:	0f 8e 6c 00 00 00    	jle    34800816 <AddSubInternalFPF+0x96>
    348007aa:	83 f9 08             	cmp    $0x8,%ecx
    348007ad:	0f 8e c8 00 00 00    	jle    3480087b <AddSubInternalFPF+0xfb>
    348007b3:	8d 48 f5             	lea    -0xb(%rax),%ecx
    348007b6:	0f b7 c9             	movzwl %cx,%ecx
    348007b9:	83 f9 02             	cmp    $0x2,%ecx
    348007bc:	0f 82 c8 00 00 00    	jb     3480088a <AddSubInternalFPF+0x10a>
    348007c2:	0f b7 c0             	movzwl %ax,%eax
    348007c5:	83 f8 09             	cmp    $0x9,%eax
    348007c8:	0f 84 75 01 00 00    	je     34800943 <AddSubInternalFPF+0x1c3>
    348007ce:	83 f8 0a             	cmp    $0xa,%eax
    348007d1:	0f 84 93 00 00 00    	je     3480086a <AddSubInternalFPF+0xea>
    348007d7:	e9 76 03 00 00       	jmpq   34800b52 <AddSubInternalFPF+0x3d2>
    348007dc:	83 f9 12             	cmp    $0x12,%ecx
    348007df:	0f 8f 76 00 00 00    	jg     3480085b <AddSubInternalFPF+0xdb>
    348007e5:	83 f9 0e             	cmp    $0xe,%ecx
    348007e8:	0f 8e 21 01 00 00    	jle    3480090f <AddSubInternalFPF+0x18f>
    348007ee:	8d 48 f1             	lea    -0xf(%rax),%ecx
    348007f1:	0f b7 c9             	movzwl %cx,%ecx
    348007f4:	83 f9 03             	cmp    $0x3,%ecx
    348007f7:	0f 82 6d 00 00 00    	jb     3480086a <AddSubInternalFPF+0xea>
    348007fd:	0f b7 c0             	movzwl %ax,%eax
    34800800:	83 f8 12             	cmp    $0x12,%eax
    34800803:	0f 85 49 03 00 00    	jne    34800b52 <AddSubInternalFPF+0x3d2>
    34800809:	48 89 df             	mov    %rbx,%rdi
    3480080c:	e8 0f 09 00 00       	callq  34801120 <SetInternalFPFNaN>
    34800811:	e9 3c 03 00 00       	jmpq   34800b52 <AddSubInternalFPF+0x3d2>
    34800816:	83 f9 03             	cmp    $0x3,%ecx
    34800819:	0f 8f 0a 01 00 00    	jg     34800929 <AddSubInternalFPF+0x1a9>
    3480081f:	8d 48 ff             	lea    -0x1(%rax),%ecx
    34800822:	0f b7 c9             	movzwl %cx,%ecx
    34800825:	83 f9 03             	cmp    $0x3,%ecx
    34800828:	0f 82 5d 01 00 00    	jb     3480098b <AddSubInternalFPF+0x20b>
    3480082e:	66 85 c0             	test   %ax,%ax
    34800831:	0f 85 1b 03 00 00    	jne    34800b52 <AddSubInternalFPF+0x3d2>
    34800837:	48 8b 03             	mov    (%rbx),%rax
    3480083a:	8b 4b 08             	mov    0x8(%rbx),%ecx
    3480083d:	89 4e 08             	mov    %ecx,0x8(%rsi)
    34800840:	48 89 06             	mov    %rax,(%rsi)
    34800843:	8a 42 01             	mov    0x1(%rdx),%al
    34800846:	32 46 01             	xor    0x1(%rsi),%al
    34800849:	40 38 f8             	cmp    %dil,%al
    3480084c:	0f 84 00 03 00 00    	je     34800b52 <AddSubInternalFPF+0x3d2>
    34800852:	c6 43 01 00          	movb   $0x0,0x1(%rbx)
    34800856:	e9 f7 02 00 00       	jmpq   34800b52 <AddSubInternalFPF+0x3d2>
    3480085b:	8d 48 ec             	lea    -0x14(%rax),%ecx
    3480085e:	0f b7 c9             	movzwl %cx,%ecx
    34800861:	83 f9 04             	cmp    $0x4,%ecx
    34800864:	0f 83 78 00 00 00    	jae    348008e2 <AddSubInternalFPF+0x162>
    3480086a:	48 8b 03             	mov    (%rbx),%rax
    3480086d:	8b 4b 08             	mov    0x8(%rbx),%ecx
    34800870:	89 4e 08             	mov    %ecx,0x8(%rsi)
    34800873:	48 89 06             	mov    %rax,(%rsi)
    34800876:	e9 d7 02 00 00       	jmpq   34800b52 <AddSubInternalFPF+0x3d2>
    3480087b:	8d 48 fa             	lea    -0x6(%rax),%ecx
    3480087e:	0f b7 c9             	movzwl %cx,%ecx
    34800881:	83 f9 02             	cmp    $0x2,%ecx
    34800884:	0f 83 f5 00 00 00    	jae    3480097f <AddSubInternalFPF+0x1ff>
    3480088a:	48 89 5c 24 10       	mov    %rbx,0x10(%rsp)
    3480088f:	8b 46 08             	mov    0x8(%rsi),%eax
    34800892:	89 44 24 20          	mov    %eax,0x20(%rsp)
    34800896:	48 8b 06             	mov    (%rsi),%rax
    34800899:	48 89 44 24 18       	mov    %rax,0x18(%rsp)
    3480089e:	48 8b 02             	mov    (%rdx),%rax
    348008a1:	48 89 44 24 28       	mov    %rax,0x28(%rsp)
    348008a6:	8b 42 08             	mov    0x8(%rdx),%eax
    348008a9:	89 44 24 30          	mov    %eax,0x30(%rsp)
    348008ad:	44 0f bf 64 24 1a    	movswl 0x1a(%rsp),%r12d
    348008b3:	0f bf 5c 24 2a       	movswl 0x2a(%rsp),%ebx
    348008b8:	44 89 e6             	mov    %r12d,%esi
    348008bb:	29 de                	sub    %ebx,%esi
    348008bd:	0f 84 91 00 00 00    	je     34800954 <AddSubInternalFPF+0x1d4>
    348008c3:	85 f6                	test   %esi,%esi
    348008c5:	0f 8e d5 00 00 00    	jle    348009a0 <AddSubInternalFPF+0x220>
    348008cb:	89 fb                	mov    %edi,%ebx
    348008cd:	48 8d 7c 24 28       	lea    0x28(%rsp),%rdi
    348008d2:	e8 d9 06 00 00       	callq  34800fb0 <StickyShiftRightMant>
    348008d7:	89 df                	mov    %ebx,%edi
    348008d9:	8a 44 24 18          	mov    0x18(%rsp),%al
    348008dd:	e9 8b 00 00 00       	jmpq   3480096d <AddSubInternalFPF+0x1ed>
    348008e2:	0f b7 c0             	movzwl %ax,%eax
    348008e5:	83 f8 13             	cmp    $0x13,%eax
    348008e8:	0f 84 55 00 00 00    	je     34800943 <AddSubInternalFPF+0x1c3>
    348008ee:	83 f8 18             	cmp    $0x18,%eax
    348008f1:	0f 85 5b 02 00 00    	jne    34800b52 <AddSubInternalFPF+0x3d2>
    348008f7:	b9 01 00 00 00       	mov    $0x1,%ecx
    348008fc:	48 89 f7             	mov    %rsi,%rdi
    348008ff:	48 89 d6             	mov    %rdx,%rsi
    34800902:	48 89 da             	mov    %rbx,%rdx
    34800905:	e8 36 08 00 00       	callq  34801140 <choose_nan>
    3480090a:	e9 43 02 00 00       	jmpq   34800b52 <AddSubInternalFPF+0x3d2>
    3480090f:	0f b7 c0             	movzwl %ax,%eax
    34800912:	83 f8 0d             	cmp    $0xd,%eax
    34800915:	0f 84 70 00 00 00    	je     3480098b <AddSubInternalFPF+0x20b>
    3480091b:	83 f8 0e             	cmp    $0xe,%eax
    3480091e:	0f 84 1f 00 00 00    	je     34800943 <AddSubInternalFPF+0x1c3>
    34800924:	e9 29 02 00 00       	jmpq   34800b52 <AddSubInternalFPF+0x3d2>
    34800929:	0f b7 c0             	movzwl %ax,%eax
    3480092c:	83 f8 04             	cmp    $0x4,%eax
    3480092f:	0f 84 0e 00 00 00    	je     34800943 <AddSubInternalFPF+0x1c3>
    34800935:	83 f8 05             	cmp    $0x5,%eax
    34800938:	0f 84 2c ff ff ff    	je     3480086a <AddSubInternalFPF+0xea>
    3480093e:	e9 0f 02 00 00       	jmpq   34800b52 <AddSubInternalFPF+0x3d2>
    34800943:	48 8b 03             	mov    (%rbx),%rax
    34800946:	8b 4b 08             	mov    0x8(%rbx),%ecx
    34800949:	89 4a 08             	mov    %ecx,0x8(%rdx)
    3480094c:	48 89 02             	mov    %rax,(%rdx)
    3480094f:	e9 fe 01 00 00       	jmpq   34800b52 <AddSubInternalFPF+0x3d2>
    34800954:	b0 01                	mov    $0x1,%al
    34800956:	80 7c 24 18 01       	cmpb   $0x1,0x18(%rsp)
    3480095b:	0f 84 0c 00 00 00    	je     3480096d <AddSubInternalFPF+0x1ed>
    34800961:	80 7c 24 28 01       	cmpb   $0x1,0x28(%rsp)
    34800966:	0f 94 c1             	sete   %cl
    34800969:	b0 02                	mov    $0x2,%al
    3480096b:	28 c8                	sub    %cl,%al
    3480096d:	48 8b 54 24 10       	mov    0x10(%rsp),%rdx
    34800972:	88 02                	mov    %al,(%rdx)
    34800974:	8a 44 24 19          	mov    0x19(%rsp),%al
    34800978:	89 c1                	mov    %eax,%ecx
    3480097a:	e9 4d 00 00 00       	jmpq   348009cc <AddSubInternalFPF+0x24c>
    3480097f:	0f b7 c0             	movzwl %ax,%eax
    34800982:	83 f8 08             	cmp    $0x8,%eax
    34800985:	0f 85 c7 01 00 00    	jne    34800b52 <AddSubInternalFPF+0x3d2>
    3480098b:	48 8b 03             	mov    (%rbx),%rax
    3480098e:	8b 4b 08             	mov    0x8(%rbx),%ecx
    34800991:	89 4a 08             	mov    %ecx,0x8(%rdx)
    34800994:	48 89 02             	mov    %rax,(%rdx)
    34800997:	40 30 7b 01          	xor    %dil,0x1(%rbx)
    3480099b:	e9 b2 01 00 00       	jmpq   34800b52 <AddSubInternalFPF+0x3d2>
    348009a0:	f7 de                	neg    %esi
    348009a2:	41 89 fc             	mov    %edi,%r12d
    348009a5:	48 8d 7c 24 18       	lea    0x18(%rsp),%rdi
    348009aa:	e8 01 06 00 00       	callq  34800fb0 <StickyShiftRightMant>
    348009af:	44 89 e7             	mov    %r12d,%edi
    348009b2:	8a 44 24 28          	mov    0x28(%rsp),%al
    348009b6:	48 8b 54 24 10       	mov    0x10(%rsp),%rdx
    348009bb:	88 02                	mov    %al,(%rdx)
    348009bd:	8a 4c 24 29          	mov    0x29(%rsp),%cl
    348009c1:	40 30 f9             	xor    %dil,%cl
    348009c4:	8a 44 24 19          	mov    0x19(%rsp),%al
    348009c8:	66 41 89 dc          	mov    %bx,%r12w
    348009cc:	88 4a 01             	mov    %cl,0x1(%rdx)
    348009cf:	66 44 89 62 02       	mov    %r12w,0x2(%rdx)
    348009d4:	8a 4c 24 29          	mov    0x29(%rsp),%cl
    348009d8:	30 c8                	xor    %cl,%al
    348009da:	40 38 f8             	cmp    %dil,%al
    348009dd:	0f 85 79 00 00 00    	jne    34800a5c <AddSubInternalFPF+0x2dc>
    348009e3:	66 c7 44 24 0a 00 00 	movw   $0x0,0xa(%rsp)
    348009ea:	48 8d 5a 0a          	lea    0xa(%rdx),%rbx
    348009ee:	41 bc 04 00 00 00    	mov    $0x4,%r12d
    348009f4:	66 66 66 2e 0f 1f 84 	data16 data16 nopw %cs:0x0(%rax,%rax,1)
    348009fb:	00 00 00 00 00 
    34800a00:	42 0f b7 4c 64 2a    	movzwl 0x2a(%rsp,%r12,2),%ecx
    34800a06:	42 0f b7 54 64 1a    	movzwl 0x1a(%rsp,%r12,2),%edx
    34800a0c:	48 8d 7c 24 0a       	lea    0xa(%rsp),%rdi
    34800a11:	48 89 de             	mov    %rbx,%rsi
    34800a14:	e8 e7 06 00 00       	callq  34801100 <Add16Bits>
    34800a19:	48 83 c3 fe          	add    $0xfffffffffffffffe,%rbx
    34800a1d:	49 ff cc             	dec    %r12
    34800a20:	0f 8f da ff ff ff    	jg     34800a00 <AddSubInternalFPF+0x280>
    34800a26:	66 83 7c 24 0a 00    	cmpw   $0x0,0xa(%rsp)
    34800a2c:	0f 84 ed 00 00 00    	je     34800b1f <AddSubInternalFPF+0x39f>
    34800a32:	48 8b 5c 24 10       	mov    0x10(%rsp),%rbx
    34800a37:	66 ff 43 02          	incw   0x2(%rbx)
    34800a3b:	66 c7 44 24 0a 00 00 	movw   $0x0,0xa(%rsp)
    34800a42:	48 8d 73 04          	lea    0x4(%rbx),%rsi
    34800a46:	48 8d 7c 24 0a       	lea    0xa(%rsp),%rdi
    34800a4b:	e8 f0 05 00 00       	callq  34801040 <ShiftMantRight1>
    34800a50:	80 4b 05 80          	orb    $0x80,0x5(%rbx)
    34800a54:	c6 03 02             	movb   $0x2,(%rbx)
    34800a57:	e9 f6 00 00 00       	jmpq   34800b52 <AddSubInternalFPF+0x3d2>
    34800a5c:	88 4c 24 0f          	mov    %cl,0xf(%rsp)
    34800a60:	89 7c 24 34          	mov    %edi,0x34(%rsp)
    34800a64:	66 c7 44 24 0c 00 00 	movw   $0x0,0xc(%rsp)
    34800a6b:	4c 8d 62 0a          	lea    0xa(%rdx),%r12
    34800a6f:	bb 04 00 00 00       	mov    $0x4,%ebx
    34800a74:	66 66 66 2e 0f 1f 84 	data16 data16 nopw %cs:0x0(%rax,%rax,1)
    34800a7b:	00 00 00 00 00 
    34800a80:	0f b7 4c 5c 2a       	movzwl 0x2a(%rsp,%rbx,2),%ecx
    34800a85:	0f b7 54 5c 1a       	movzwl 0x1a(%rsp,%rbx,2),%edx
    34800a8a:	48 8d 7c 24 0c       	lea    0xc(%rsp),%rdi
    34800a8f:	4c 89 e6             	mov    %r12,%rsi
    34800a92:	e8 f9 05 00 00       	callq  34801090 <Sub16Bits>
    34800a97:	49 83 c4 fe          	add    $0xfffffffffffffffe,%r12
    34800a9b:	48 ff cb             	dec    %rbx
    34800a9e:	0f 8f dc ff ff ff    	jg     34800a80 <AddSubInternalFPF+0x300>
    34800aa4:	66 83 7c 24 0c 00    	cmpw   $0x0,0xc(%rsp)
    34800aaa:	0f 84 4f 00 00 00    	je     34800aff <AddSubInternalFPF+0x37f>
    34800ab0:	8a 4c 24 0f          	mov    0xf(%rsp),%cl
    34800ab4:	32 4c 24 34          	xor    0x34(%rsp),%cl
    34800ab8:	48 8b 44 24 10       	mov    0x10(%rsp),%rax
    34800abd:	88 48 01             	mov    %cl,0x1(%rax)
    34800ac0:	66 c7 44 24 0c 00 00 	movw   $0x0,0xc(%rsp)
    34800ac7:	48 8d 58 0a          	lea    0xa(%rax),%rbx
    34800acb:	41 bc 04 00 00 00    	mov    $0x4,%r12d
    34800ad1:	66 66 66 66 66 66 2e 	data16 data16 data16 data16 data16 nopw %cs:0x0(%rax,%rax,1)
    34800ad8:	0f 1f 84 00 00 00 00 
    34800adf:	00 
    34800ae0:	0f b7 0b             	movzwl (%rbx),%ecx
    34800ae3:	31 d2                	xor    %edx,%edx
    34800ae5:	48 8d 7c 24 0c       	lea    0xc(%rsp),%rdi
    34800aea:	48 89 de             	mov    %rbx,%rsi
    34800aed:	e8 9e 05 00 00       	callq  34801090 <Sub16Bits>
    34800af2:	48 83 c3 fe          	add    $0xfffffffffffffffe,%rbx
    34800af6:	49 ff cc             	dec    %r12
    34800af9:	0f 8f e1 ff ff ff    	jg     34800ae0 <AddSubInternalFPF+0x360>
    34800aff:	48 8b 5c 24 10       	mov    0x10(%rsp),%rbx
    34800b04:	48 8d 7b 04          	lea    0x4(%rbx),%rdi
    34800b08:	e8 53 04 00 00       	callq  34800f60 <IsMantissaZero>
    34800b0d:	85 c0                	test   %eax,%eax
    34800b0f:	0f 84 1f 00 00 00    	je     34800b34 <AddSubInternalFPF+0x3b4>
    34800b15:	66 c7 03 00 00       	movw   $0x0,(%rbx)
    34800b1a:	e9 33 00 00 00       	jmpq   34800b52 <AddSubInternalFPF+0x3d2>
    34800b1f:	48 8b 5c 24 10       	mov    0x10(%rsp),%rbx
    34800b24:	66 83 7b 04 00       	cmpw   $0x0,0x4(%rbx)
    34800b29:	0f 89 23 00 00 00    	jns    34800b52 <AddSubInternalFPF+0x3d2>
    34800b2f:	e9 20 ff ff ff       	jmpq   34800a54 <AddSubInternalFPF+0x2d4>
    34800b34:	80 7c 24 18 02       	cmpb   $0x2,0x18(%rsp)
    34800b39:	0f 84 0b 00 00 00    	je     34800b4a <AddSubInternalFPF+0x3ca>
    34800b3f:	80 7c 24 28 02       	cmpb   $0x2,0x28(%rsp)
    34800b44:	0f 85 08 00 00 00    	jne    34800b52 <AddSubInternalFPF+0x3d2>
    34800b4a:	48 89 df             	mov    %rbx,%rdi
    34800b4d:	e8 5e 05 00 00       	callq  348010b0 <normalize>
    34800b52:	48 89 df             	mov    %rbx,%rdi
    34800b55:	e8 86 03 00 00       	callq  34800ee0 <RoundInternalFPF>
    34800b5a:	48 83 c4 38          	add    $0x38,%rsp
    34800b5e:	5b                   	pop    %rbx
    34800b5f:	41 5c                	pop    %r12
    34800b61:	c3                   	retq   
    34800b62:	66 66 66 66 66 2e 0f 	data16 data16 data16 data16 nopw %cs:0x0(%rax,%rax,1)
    34800b69:	1f 84 00 00 00 00 00 

0000000034800b70 <MultiplyInternalFPF>:
    34800b70:	41 54                	push   %r12
    34800b72:	53                   	push   %rbx
    34800b73:	48 83 ec 48          	sub    $0x48,%rsp
    34800b77:	49 89 d4             	mov    %rdx,%r12
    34800b7a:	0f b6 1f             	movzbl (%rdi),%ebx
    34800b7d:	8d 0c 9b             	lea    (%rbx,%rbx,4),%ecx
    34800b80:	0f b6 06             	movzbl (%rsi),%eax
    34800b83:	01 c8                	add    %ecx,%eax
    34800b85:	0f bf c8             	movswl %ax,%ecx
    34800b88:	83 f8 0c             	cmp    $0xc,%eax
    34800b8b:	0f 8f 3b 00 00 00    	jg     34800bcc <MultiplyInternalFPF+0x5c>
    34800b91:	83 f9 05             	cmp    $0x5,%ecx
    34800b94:	0f 8e 67 00 00 00    	jle    34800c01 <MultiplyInternalFPF+0x91>
    34800b9a:	83 f9 08             	cmp    $0x8,%ecx
    34800b9d:	0f 8e ad 00 00 00    	jle    34800c50 <MultiplyInternalFPF+0xe0>
    34800ba3:	8d 48 f5             	lea    -0xb(%rax),%ecx
    34800ba6:	0f b7 c9             	movzwl %cx,%ecx
    34800ba9:	83 f9 02             	cmp    $0x2,%ecx
    34800bac:	0f 82 ad 00 00 00    	jb     34800c5f <MultiplyInternalFPF+0xef>
    34800bb2:	0f b7 c0             	movzwl %ax,%eax
    34800bb5:	83 f8 09             	cmp    $0x9,%eax
    34800bb8:	0f 84 b6 02 00 00    	je     34800e74 <MultiplyInternalFPF+0x304>
    34800bbe:	83 f8 0a             	cmp    $0xa,%eax
    34800bc1:	0f 84 da 02 00 00    	je     34800ea1 <MultiplyInternalFPF+0x331>
    34800bc7:	e9 ec 02 00 00       	jmpq   34800eb8 <MultiplyInternalFPF+0x348>
    34800bcc:	83 f9 12             	cmp    $0x12,%ecx
    34800bcf:	0f 8f 58 00 00 00    	jg     34800c2d <MultiplyInternalFPF+0xbd>
    34800bd5:	83 f9 0f             	cmp    $0xf,%ecx
    34800bd8:	0f 8f 38 00 00 00    	jg     34800c16 <MultiplyInternalFPF+0xa6>
    34800bde:	0f b7 c0             	movzwl %ax,%eax
    34800be1:	83 f8 0d             	cmp    $0xd,%eax
    34800be4:	0f 84 b7 02 00 00    	je     34800ea1 <MultiplyInternalFPF+0x331>
    34800bea:	83 f8 0e             	cmp    $0xe,%eax
    34800bed:	0f 84 81 02 00 00    	je     34800e74 <MultiplyInternalFPF+0x304>
    34800bf3:	83 f8 0f             	cmp    $0xf,%eax
    34800bf6:	0f 84 8c 02 00 00    	je     34800e88 <MultiplyInternalFPF+0x318>
    34800bfc:	e9 b7 02 00 00       	jmpq   34800eb8 <MultiplyInternalFPF+0x348>
    34800c01:	0f b7 c0             	movzwl %ax,%eax
    34800c04:	83 f9 02             	cmp    $0x2,%ecx
    34800c07:	0f 8f 23 02 00 00    	jg     34800e30 <MultiplyInternalFPF+0x2c0>
    34800c0d:	83 f8 03             	cmp    $0x3,%eax
    34800c10:	0f 83 a2 02 00 00    	jae    34800eb8 <MultiplyInternalFPF+0x348>
    34800c16:	49 8b 04 24          	mov    (%r12),%rax
    34800c1a:	41 8b 4c 24 08       	mov    0x8(%r12),%ecx
    34800c1f:	89 4f 08             	mov    %ecx,0x8(%rdi)
    34800c22:	48 89 07             	mov    %rax,(%rdi)
    34800c25:	8a 46 01             	mov    0x1(%rsi),%al
    34800c28:	e9 86 02 00 00       	jmpq   34800eb3 <MultiplyInternalFPF+0x343>
    34800c2d:	8d 48 ec             	lea    -0x14(%rax),%ecx
    34800c30:	0f b7 c9             	movzwl %cx,%ecx
    34800c33:	83 f9 04             	cmp    $0x4,%ecx
    34800c36:	0f 83 14 02 00 00    	jae    34800e50 <MultiplyInternalFPF+0x2e0>
    34800c3c:	49 8b 04 24          	mov    (%r12),%rax
    34800c40:	41 8b 4c 24 08       	mov    0x8(%r12),%ecx
    34800c45:	89 4f 08             	mov    %ecx,0x8(%rdi)
    34800c48:	48 89 07             	mov    %rax,(%rdi)
    34800c4b:	e9 68 02 00 00       	jmpq   34800eb8 <MultiplyInternalFPF+0x348>
    34800c50:	8d 48 fa             	lea    -0x6(%rax),%ecx
    34800c53:	0f b7 c9             	movzwl %cx,%ecx
    34800c56:	83 f9 02             	cmp    $0x2,%ecx
    34800c59:	0f 83 36 02 00 00    	jae    34800e95 <MultiplyInternalFPF+0x325>
    34800c5f:	8b 46 08             	mov    0x8(%rsi),%eax
    34800c62:	89 44 24 40          	mov    %eax,0x40(%rsp)
    34800c66:	48 89 74 24 08       	mov    %rsi,0x8(%rsp)
    34800c6b:	48 8b 06             	mov    (%rsi),%rax
    34800c6e:	48 89 44 24 38       	mov    %rax,0x38(%rsp)
    34800c73:	48 89 7c 24 10       	mov    %rdi,0x10(%rsp)
    34800c78:	48 8d 7f 04          	lea    0x4(%rdi),%rdi
    34800c7c:	e8 df 02 00 00       	callq  34800f60 <IsMantissaZero>
    34800c81:	85 c0                	test   %eax,%eax
    34800c83:	0f 85 16 00 00 00    	jne    34800c9f <MultiplyInternalFPF+0x12f>
    34800c89:	48 8b 44 24 08       	mov    0x8(%rsp),%rax
    34800c8e:	48 8d 78 04          	lea    0x4(%rax),%rdi
    34800c92:	e8 c9 02 00 00       	callq  34800f60 <IsMantissaZero>
    34800c97:	85 c0                	test   %eax,%eax
    34800c99:	0f 84 29 02 00 00    	je     34800ec8 <MultiplyInternalFPF+0x358>
    34800c9f:	4c 89 e7             	mov    %r12,%rdi
    34800ca2:	e8 39 05 00 00       	callq  348011e0 <SetInternalFPFInfinity>
    34800ca7:	48 8b 44 24 10       	mov    0x10(%rsp),%rax
    34800cac:	8a 18                	mov    (%rax),%bl
    34800cae:	48 89 c2             	mov    %rax,%rdx
    34800cb1:	b0 01                	mov    $0x1,%al
    34800cb3:	80 fb 01             	cmp    $0x1,%bl
    34800cb6:	48 8b 74 24 08       	mov    0x8(%rsp),%rsi
    34800cbb:	0f 84 0a 00 00 00    	je     34800ccb <MultiplyInternalFPF+0x15b>
    34800cc1:	80 3e 01             	cmpb   $0x1,(%rsi)
    34800cc4:	0f 94 c1             	sete   %cl
    34800cc7:	b0 02                	mov    $0x2,%al
    34800cc9:	28 c8                	sub    %cl,%al
    34800ccb:	41 88 04 24          	mov    %al,(%r12)
    34800ccf:	8a 46 01             	mov    0x1(%rsi),%al
    34800cd2:	32 42 01             	xor    0x1(%rdx),%al
    34800cd5:	41 88 44 24 01       	mov    %al,0x1(%r12)
    34800cda:	0f b7 46 02          	movzwl 0x2(%rsi),%eax
    34800cde:	66 03 42 02          	add    0x2(%rdx),%ax
    34800ce2:	66 41 89 44 24 02    	mov    %ax,0x2(%r12)
    34800ce8:	4c 89 e0             	mov    %r12,%rax
    34800ceb:	4c 8d 60 04          	lea    0x4(%rax),%r12
    34800cef:	48 c7 40 04 00 00 00 	movq   $0x0,0x4(%rax)
    34800cf6:	00 
    34800cf7:	48 c7 44 24 18 00 00 	movq   $0x0,0x18(%rsp)
    34800cfe:	00 00 
    34800d00:	48 89 44 24 28       	mov    %rax,0x28(%rsp)
    34800d05:	48 8d 40 0a          	lea    0xa(%rax),%rax
    34800d09:	48 89 44 24 30       	mov    %rax,0x30(%rsp)
    34800d0e:	31 c0                	xor    %eax,%eax
    34800d10:	48 8d 5c 24 06       	lea    0x6(%rsp),%rbx
    34800d15:	4c 89 64 24 20       	mov    %r12,0x20(%rsp)
    34800d1a:	66 0f 1f 44 00 00    	nopw   0x0(%rax,%rax,1)
    34800d20:	89 44 24 08          	mov    %eax,0x8(%rsp)
    34800d24:	66 c7 44 24 06 00 00 	movw   $0x0,0x6(%rsp)
    34800d2b:	48 89 df             	mov    %rbx,%rdi
    34800d2e:	48 8d 74 24 3c       	lea    0x3c(%rsp),%rsi
    34800d33:	e8 08 03 00 00       	callq  34801040 <ShiftMantRight1>
    34800d38:	66 83 7c 24 06 00    	cmpw   $0x0,0x6(%rsp)
    34800d3e:	66 c7 44 24 06 00 00 	movw   $0x0,0x6(%rsp)
    34800d45:	48 89 d8             	mov    %rbx,%rax
    34800d48:	0f 84 3f 00 00 00    	je     34800d8d <MultiplyInternalFPF+0x21d>
    34800d4e:	48 8b 5c 24 30       	mov    0x30(%rsp),%rbx
    34800d53:	41 bc 04 00 00 00    	mov    $0x4,%r12d
    34800d59:	0f 1f 80 00 00 00 00 	nopl   0x0(%rax)
    34800d60:	48 8b 44 24 10       	mov    0x10(%rsp),%rax
    34800d65:	42 0f b7 4c 60 02    	movzwl 0x2(%rax,%r12,2),%ecx
    34800d6b:	0f b7 13             	movzwl (%rbx),%edx
    34800d6e:	48 8d 7c 24 06       	lea    0x6(%rsp),%rdi
    34800d73:	48 89 de             	mov    %rbx,%rsi
    34800d76:	e8 85 03 00 00       	callq  34801100 <Add16Bits>
    34800d7b:	48 8d 44 24 06       	lea    0x6(%rsp),%rax
    34800d80:	48 83 c3 fe          	add    $0xfffffffffffffffe,%rbx
    34800d84:	49 ff cc             	dec    %r12
    34800d87:	0f 8f d3 ff ff ff    	jg     34800d60 <MultiplyInternalFPF+0x1f0>
    34800d8d:	48 89 c3             	mov    %rax,%rbx
    34800d90:	48 89 df             	mov    %rbx,%rdi
    34800d93:	4c 8b 64 24 20       	mov    0x20(%rsp),%r12
    34800d98:	4c 89 e6             	mov    %r12,%rsi
    34800d9b:	e8 a0 02 00 00       	callq  34801040 <ShiftMantRight1>
    34800da0:	48 89 df             	mov    %rbx,%rdi
    34800da3:	48 8d 74 24 18       	lea    0x18(%rsp),%rsi
    34800da8:	e8 93 02 00 00       	callq  34801040 <ShiftMantRight1>
    34800dad:	8b 44 24 08          	mov    0x8(%rsp),%eax
    34800db1:	ff c0                	inc    %eax
    34800db3:	83 f8 40             	cmp    $0x40,%eax
    34800db6:	0f 85 64 ff ff ff    	jne    34800d20 <MultiplyInternalFPF+0x1b0>
    34800dbc:	66 41 83 3c 24 00    	cmpw   $0x0,(%r12)
    34800dc2:	48 8b 5c 24 28       	mov    0x28(%rsp),%rbx
    34800dc7:	0f 88 43 00 00 00    	js     34800e10 <MultiplyInternalFPF+0x2a0>
    34800dcd:	4c 8d 64 24 06       	lea    0x6(%rsp),%r12
    34800dd2:	66 66 66 66 66 2e 0f 	data16 data16 data16 data16 nopw %cs:0x0(%rax,%rax,1)
    34800dd9:	1f 84 00 00 00 00 00 
    34800de0:	66 c7 44 24 06 00 00 	movw   $0x0,0x6(%rsp)
    34800de7:	4c 89 e7             	mov    %r12,%rdi
    34800dea:	48 8d 74 24 18       	lea    0x18(%rsp),%rsi
    34800def:	e8 ac 03 00 00       	callq  348011a0 <ShiftMantLeft1>
    34800df4:	4c 89 e7             	mov    %r12,%rdi
    34800df7:	48 8b 74 24 20       	mov    0x20(%rsp),%rsi
    34800dfc:	e8 9f 03 00 00       	callq  348011a0 <ShiftMantLeft1>
    34800e01:	66 ff 4b 02          	decw   0x2(%rbx)
    34800e05:	66 83 7b 04 00       	cmpw   $0x0,0x4(%rbx)
    34800e0a:	0f 89 d0 ff ff ff    	jns    34800de0 <MultiplyInternalFPF+0x270>
    34800e10:	48 8d 7c 24 18       	lea    0x18(%rsp),%rdi
    34800e15:	e8 46 01 00 00       	callq  34800f60 <IsMantissaZero>
    34800e1a:	85 c0                	test   %eax,%eax
    34800e1c:	49 89 dc             	mov    %rbx,%r12
    34800e1f:	0f 84 93 00 00 00    	je     34800eb8 <MultiplyInternalFPF+0x348>
    34800e25:	41 80 4c 24 0a 01    	orb    $0x1,0xa(%r12)
    34800e2b:	e9 88 00 00 00       	jmpq   34800eb8 <MultiplyInternalFPF+0x348>
    34800e30:	83 f8 03             	cmp    $0x3,%eax
    34800e33:	0f 84 4f 00 00 00    	je     34800e88 <MultiplyInternalFPF+0x318>
    34800e39:	83 f8 04             	cmp    $0x4,%eax
    34800e3c:	0f 84 32 00 00 00    	je     34800e74 <MultiplyInternalFPF+0x304>
    34800e42:	83 f8 05             	cmp    $0x5,%eax
    34800e45:	0f 84 56 00 00 00    	je     34800ea1 <MultiplyInternalFPF+0x331>
    34800e4b:	e9 68 00 00 00       	jmpq   34800eb8 <MultiplyInternalFPF+0x348>
    34800e50:	0f b7 c0             	movzwl %ax,%eax
    34800e53:	83 f8 13             	cmp    $0x13,%eax
    34800e56:	0f 84 18 00 00 00    	je     34800e74 <MultiplyInternalFPF+0x304>
    34800e5c:	83 f8 18             	cmp    $0x18,%eax
    34800e5f:	0f 85 53 00 00 00    	jne    34800eb8 <MultiplyInternalFPF+0x348>
    34800e65:	31 c9                	xor    %ecx,%ecx
    34800e67:	4c 89 e2             	mov    %r12,%rdx
    34800e6a:	e8 d1 02 00 00       	callq  34801140 <choose_nan>
    34800e6f:	e9 44 00 00 00       	jmpq   34800eb8 <MultiplyInternalFPF+0x348>
    34800e74:	49 8b 04 24          	mov    (%r12),%rax
    34800e78:	41 8b 4c 24 08       	mov    0x8(%r12),%ecx
    34800e7d:	89 4e 08             	mov    %ecx,0x8(%rsi)
    34800e80:	48 89 06             	mov    %rax,(%rsi)
    34800e83:	e9 30 00 00 00       	jmpq   34800eb8 <MultiplyInternalFPF+0x348>
    34800e88:	4c 89 e7             	mov    %r12,%rdi
    34800e8b:	e8 90 02 00 00       	callq  34801120 <SetInternalFPFNaN>
    34800e90:	e9 23 00 00 00       	jmpq   34800eb8 <MultiplyInternalFPF+0x348>
    34800e95:	0f b7 c0             	movzwl %ax,%eax
    34800e98:	83 f8 08             	cmp    $0x8,%eax
    34800e9b:	0f 85 17 00 00 00    	jne    34800eb8 <MultiplyInternalFPF+0x348>
    34800ea1:	49 8b 04 24          	mov    (%r12),%rax
    34800ea5:	41 8b 4c 24 08       	mov    0x8(%r12),%ecx
    34800eaa:	89 4e 08             	mov    %ecx,0x8(%rsi)
    34800ead:	48 89 06             	mov    %rax,(%rsi)
    34800eb0:	8a 47 01             	mov    0x1(%rdi),%al
    34800eb3:	41 30 44 24 01       	xor    %al,0x1(%r12)
    34800eb8:	4c 89 e7             	mov    %r12,%rdi
    34800ebb:	e8 20 00 00 00       	callq  34800ee0 <RoundInternalFPF>
    34800ec0:	48 83 c4 48          	add    $0x48,%rsp
    34800ec4:	5b                   	pop    %rbx
    34800ec5:	41 5c                	pop    %r12
    34800ec7:	c3                   	retq   
    34800ec8:	48 8b 54 24 10       	mov    0x10(%rsp),%rdx
    34800ecd:	e9 df fd ff ff       	jmpq   34800cb1 <MultiplyInternalFPF+0x141>
    34800ed2:	66 66 66 66 66 2e 0f 	data16 data16 data16 data16 nopw %cs:0x0(%rax,%rax,1)
    34800ed9:	1f 84 00 00 00 00 00 

0000000034800ee0 <RoundInternalFPF>:
    34800ee0:	53                   	push   %rbx
    34800ee1:	48 89 fb             	mov    %rdi,%rbx
    34800ee4:	8a 03                	mov    (%rbx),%al
    34800ee6:	fe c8                	dec    %al
    34800ee8:	3c 01                	cmp    $0x1,%al
    34800eea:	0f 87 15 00 00 00    	ja     34800f05 <RoundInternalFPF+0x25>
    34800ef0:	48 89 df             	mov    %rbx,%rdi
    34800ef3:	e8 18 00 00 00       	callq  34800f10 <denormalize>
    34800ef8:	80 3b 00             	cmpb   $0x0,(%rbx)
    34800efb:	0f 84 04 00 00 00    	je     34800f05 <RoundInternalFPF+0x25>
    34800f01:	80 63 0a f8          	andb   $0xf8,0xa(%rbx)
    34800f05:	5b                   	pop    %rbx
    34800f06:	c3                   	retq   
    34800f07:	66 0f 1f 84 00 00 00 	nopw   0x0(%rax,%rax,1)
    34800f0e:	00 00 

0000000034800f10 <denormalize>:
    34800f10:	53                   	push   %rbx
    34800f11:	48 89 fb             	mov    %rdi,%rbx
    34800f14:	48 8d 7b 04          	lea    0x4(%rbx),%rdi
    34800f18:	e8 43 00 00 00       	callq  34800f60 <IsMantissaZero>
    34800f1d:	85 c0                	test   %eax,%eax
    34800f1f:	0f 84 0a 00 00 00    	je     34800f2f <denormalize+0x1f>
    34800f25:	bf 30 2f 81 34       	mov    $0x34812f30,%edi
    34800f2a:	e8 91 b9 00 00       	callq  3480c8c0 <puts>
    34800f2f:	0f b7 43 02          	movzwl 0x2(%rbx),%eax
    34800f33:	3d 00 80 00 00       	cmp    $0x8000,%eax
    34800f38:	0f 85 14 00 00 00    	jne    34800f52 <denormalize+0x42>
    34800f3e:	66 c7 43 02 01 80    	movw   $0x8001,0x2(%rbx)
    34800f44:	be 01 00 00 00       	mov    $0x1,%esi
    34800f49:	48 89 df             	mov    %rbx,%rdi
    34800f4c:	5b                   	pop    %rbx
    34800f4d:	e9 5e 00 00 00       	jmpq   34800fb0 <StickyShiftRightMant>
    34800f52:	5b                   	pop    %rbx
    34800f53:	c3                   	retq   
    34800f54:	66 66 66 2e 0f 1f 84 	data16 data16 nopw %cs:0x0(%rax,%rax,1)
    34800f5b:	00 00 00 00 00 

0000000034800f60 <IsMantissaZero>:
    34800f60:	31 c0                	xor    %eax,%eax
    34800f62:	31 c9                	xor    %ecx,%ecx
    34800f64:	66 66 66 2e 0f 1f 84 	data16 data16 nopw %cs:0x0(%rax,%rax,1)
    34800f6b:	00 00 00 00 00 
    34800f70:	0f b7 14 47          	movzwl (%rdi,%rax,2),%edx
    34800f74:	09 d1                	or     %edx,%ecx
    34800f76:	48 ff c0             	inc    %rax
    34800f79:	48 83 f8 04          	cmp    $0x4,%rax
    34800f7d:	0f 85 ed ff ff ff    	jne    34800f70 <IsMantissaZero+0x10>
    34800f83:	31 c0                	xor    %eax,%eax
    34800f85:	85 c9                	test   %ecx,%ecx
    34800f87:	0f 94 c0             	sete   %al
    34800f8a:	c3                   	retq   
    34800f8b:	0f 1f 44 00 00       	nopl   0x0(%rax,%rax,1)

0000000034800f90 <SetInternalFPFZero>:
    34800f90:	c6 07 00             	movb   $0x0,(%rdi)
    34800f93:	40 88 77 01          	mov    %sil,0x1(%rdi)
    34800f97:	66 c7 47 02 01 80    	movw   $0x8001,0x2(%rdi)
    34800f9d:	48 c7 47 04 00 00 00 	movq   $0x0,0x4(%rdi)
    34800fa4:	00 
    34800fa5:	c3                   	retq   
    34800fa6:	66 2e 0f 1f 84 00 00 	nopw   %cs:0x0(%rax,%rax,1)
    34800fad:	00 00 00 

0000000034800fb0 <StickyShiftRightMant>:
    34800fb0:	41 54                	push   %r12
    34800fb2:	53                   	push   %rbx
    34800fb3:	48 83 ec 18          	sub    $0x18,%rsp
    34800fb7:	89 f3                	mov    %esi,%ebx
    34800fb9:	49 89 fc             	mov    %rdi,%r12
    34800fbc:	41 80 3c 24 00       	cmpb   $0x0,(%r12)
    34800fc1:	0f 84 6c 00 00 00    	je     34801033 <StickyShiftRightMant+0x83>
    34800fc7:	49 8d 44 24 04       	lea    0x4(%r12),%rax
    34800fcc:	83 fb 40             	cmp    $0x40,%ebx
    34800fcf:	0f 8c 19 00 00 00    	jl     34800fee <StickyShiftRightMant+0x3e>
    34800fd5:	66 c7 40 04 00 00    	movw   $0x0,0x4(%rax)
    34800fdb:	c7 00 00 00 00 00    	movl   $0x0,(%rax)
    34800fe1:	66 41 c7 44 24 0a 01 	movw   $0x1,0xa(%r12)
    34800fe8:	00 
    34800fe9:	e9 45 00 00 00       	jmpq   34801033 <StickyShiftRightMant+0x83>
    34800fee:	85 db                	test   %ebx,%ebx
    34800ff0:	0f 8e 3d 00 00 00    	jle    34801033 <StickyShiftRightMant+0x83>
    34800ff6:	48 89 44 24 10       	mov    %rax,0x10(%rsp)
    34800ffb:	0f 1f 44 00 00       	nopl   0x0(%rax,%rax,1)
    34801000:	66 c7 44 24 0e 00 00 	movw   $0x0,0xe(%rsp)
    34801007:	48 8d 7c 24 0e       	lea    0xe(%rsp),%rdi
    3480100c:	48 89 c6             	mov    %rax,%rsi
    3480100f:	e8 2c 00 00 00       	callq  34801040 <ShiftMantRight1>
    34801014:	66 83 7c 24 0e 00    	cmpw   $0x0,0xe(%rsp)
    3480101a:	0f 84 06 00 00 00    	je     34801026 <StickyShiftRightMant+0x76>
    34801020:	41 80 4c 24 0a 01    	orb    $0x1,0xa(%r12)
    34801026:	ff cb                	dec    %ebx
    34801028:	48 8b 44 24 10       	mov    0x10(%rsp),%rax
    3480102d:	0f 85 cd ff ff ff    	jne    34801000 <StickyShiftRightMant+0x50>
    34801033:	48 83 c4 18          	add    $0x18,%rsp
    34801037:	5b                   	pop    %rbx
    34801038:	41 5c                	pop    %r12
    3480103a:	c3                   	retq   
    3480103b:	0f 1f 44 00 00       	nopl   0x0(%rax,%rax,1)

0000000034801040 <ShiftMantRight1>:
    34801040:	31 c0                	xor    %eax,%eax
    34801042:	66 66 66 66 66 2e 0f 	data16 data16 data16 data16 nopw %cs:0x0(%rax,%rax,1)
    34801049:	1f 84 00 00 00 00 00 
    34801050:	0f b7 14 46          	movzwl (%rsi,%rax,2),%edx
    34801054:	41 89 d0             	mov    %edx,%r8d
    34801057:	41 83 e0 01          	and    $0x1,%r8d
    3480105b:	d1 ea                	shr    %edx
    3480105d:	89 d1                	mov    %edx,%ecx
    3480105f:	81 c9 00 80 00 00    	or     $0x8000,%ecx
    34801065:	66 83 3f 00          	cmpw   $0x0,(%rdi)
    34801069:	66 0f 44 ca          	cmove  %dx,%cx
    3480106d:	66 44 89 07          	mov    %r8w,(%rdi)
    34801071:	66 89 0c 46          	mov    %cx,(%rsi,%rax,2)
    34801075:	48 ff c0             	inc    %rax
    34801078:	48 83 f8 04          	cmp    $0x4,%rax
    3480107c:	0f 85 ce ff ff ff    	jne    34801050 <ShiftMantRight1+0x10>
    34801082:	c3                   	retq   
    34801083:	66 66 66 66 2e 0f 1f 	data16 data16 data16 nopw %cs:0x0(%rax,%rax,1)
    3480108a:	84 00 00 00 00 00 

0000000034801090 <Sub16Bits>:
    34801090:	29 ca                	sub    %ecx,%edx
    34801092:	0f b7 07             	movzwl (%rdi),%eax
    34801095:	29 c2                	sub    %eax,%edx
    34801097:	89 d0                	mov    %edx,%eax
    34801099:	c1 e8 10             	shr    $0x10,%eax
    3480109c:	83 e0 01             	and    $0x1,%eax
    3480109f:	66 89 07             	mov    %ax,(%rdi)
    348010a2:	66 89 16             	mov    %dx,(%rsi)
    348010a5:	c3                   	retq   
    348010a6:	66 2e 0f 1f 84 00 00 	nopw   %cs:0x0(%rax,%rax,1)
    348010ad:	00 00 00 

00000000348010b0 <normalize>:
    348010b0:	41 54                	push   %r12
    348010b2:	53                   	push   %rbx
    348010b3:	50                   	push   %rax
    348010b4:	48 89 fb             	mov    %rdi,%rbx
    348010b7:	66 83 7b 04 00       	cmpw   $0x0,0x4(%rbx)
    348010bc:	0f 88 31 00 00 00    	js     348010f3 <normalize+0x43>
    348010c2:	4c 8d 63 04          	lea    0x4(%rbx),%r12
    348010c6:	66 2e 0f 1f 84 00 00 	nopw   %cs:0x0(%rax,%rax,1)
    348010cd:	00 00 00 
    348010d0:	66 c7 44 24 06 00 00 	movw   $0x0,0x6(%rsp)
    348010d7:	48 8d 7c 24 06       	lea    0x6(%rsp),%rdi
    348010dc:	4c 89 e6             	mov    %r12,%rsi
    348010df:	e8 bc 00 00 00       	callq  348011a0 <ShiftMantLeft1>
    348010e4:	66 ff 4b 02          	decw   0x2(%rbx)
    348010e8:	66 83 7b 04 00       	cmpw   $0x0,0x4(%rbx)
    348010ed:	0f 89 dd ff ff ff    	jns    348010d0 <normalize+0x20>
    348010f3:	48 83 c4 08          	add    $0x8,%rsp
    348010f7:	5b                   	pop    %rbx
    348010f8:	41 5c                	pop    %r12
    348010fa:	c3                   	retq   
    348010fb:	0f 1f 44 00 00       	nopl   0x0(%rax,%rax,1)

0000000034801100 <Add16Bits>:
    34801100:	01 ca                	add    %ecx,%edx
    34801102:	0f b7 07             	movzwl (%rdi),%eax
    34801105:	01 d0                	add    %edx,%eax
    34801107:	89 c1                	mov    %eax,%ecx
    34801109:	c1 e9 10             	shr    $0x10,%ecx
    3480110c:	83 e1 01             	and    $0x1,%ecx
    3480110f:	66 89 0f             	mov    %cx,(%rdi)
    34801112:	66 89 06             	mov    %ax,(%rsi)
    34801115:	c3                   	retq   
    34801116:	66 2e 0f 1f 84 00 00 	nopw   %cs:0x0(%rax,%rax,1)
    3480111d:	00 00 00 

0000000034801120 <SetInternalFPFNaN>:
    34801120:	66 c7 07 04 01       	movw   $0x104,(%rdi)
    34801125:	48 c7 47 02 ff 7f 00 	movq   $0x40007fff,0x2(%rdi)
    3480112c:	40 
    3480112d:	66 c7 47 0a 00 00    	movw   $0x0,0xa(%rdi)
    34801133:	c3                   	retq   
    34801134:	66 66 66 2e 0f 1f 84 	data16 data16 nopw %cs:0x0(%rax,%rax,1)
    3480113b:	00 00 00 00 00 

0000000034801140 <choose_nan>:
    34801140:	49 c7 c0 ff ff ff ff 	mov    $0xffffffffffffffff,%r8
    34801147:	66 0f 1f 84 00 00 00 	nopw   0x0(%rax,%rax,1)
    3480114e:	00 00 
    34801150:	42 0f b7 44 46 06    	movzwl 0x6(%rsi,%r8,2),%eax
    34801156:	66 42 39 44 47 06    	cmp    %ax,0x6(%rdi,%r8,2)
    3480115c:	0f 87 28 00 00 00    	ja     3480118a <choose_nan+0x4a>
    34801162:	0f 82 15 00 00 00    	jb     3480117d <choose_nan+0x3d>
    34801168:	49 ff c0             	inc    %r8
    3480116b:	49 83 f8 02          	cmp    $0x2,%r8
    3480116f:	0f 8e db ff ff ff    	jle    34801150 <choose_nan+0x10>
    34801175:	85 c9                	test   %ecx,%ecx
    34801177:	0f 84 0d 00 00 00    	je     3480118a <choose_nan+0x4a>
    3480117d:	48 8b 02             	mov    (%rdx),%rax
    34801180:	8b 4a 08             	mov    0x8(%rdx),%ecx
    34801183:	89 4e 08             	mov    %ecx,0x8(%rsi)
    34801186:	48 89 06             	mov    %rax,(%rsi)
    34801189:	c3                   	retq   
    3480118a:	48 8b 02             	mov    (%rdx),%rax
    3480118d:	8b 4a 08             	mov    0x8(%rdx),%ecx
    34801190:	89 4f 08             	mov    %ecx,0x8(%rdi)
    34801193:	48 89 07             	mov    %rax,(%rdi)
    34801196:	c3                   	retq   
    34801197:	66 0f 1f 84 00 00 00 	nopw   0x0(%rax,%rax,1)
    3480119e:	00 00 

00000000348011a0 <ShiftMantLeft1>:
    348011a0:	b8 04 00 00 00       	mov    $0x4,%eax
    348011a5:	66 66 2e 0f 1f 84 00 	data16 nopw %cs:0x0(%rax,%rax,1)
    348011ac:	00 00 00 00 
    348011b0:	44 0f b7 44 46 fe    	movzwl -0x2(%rsi,%rax,2),%r8d
    348011b6:	44 89 c2             	mov    %r8d,%edx
    348011b9:	81 e2 00 80 00 00    	and    $0x8000,%edx
    348011bf:	31 c9                	xor    %ecx,%ecx
    348011c1:	66 83 3f 00          	cmpw   $0x0,(%rdi)
    348011c5:	0f 95 c1             	setne  %cl
    348011c8:	42 8d 0c 41          	lea    (%rcx,%r8,2),%ecx
    348011cc:	66 89 17             	mov    %dx,(%rdi)
    348011cf:	66 89 4c 46 fe       	mov    %cx,-0x2(%rsi,%rax,2)
    348011d4:	48 ff c8             	dec    %rax
    348011d7:	0f 8f d3 ff ff ff    	jg     348011b0 <ShiftMantLeft1+0x10>
    348011dd:	c3                   	retq   
    348011de:	66 90                	xchg   %ax,%ax

00000000348011e0 <SetInternalFPFInfinity>:
    348011e0:	c7 07 03 00 01 80    	movl   $0x80010003,(%rdi)
    348011e6:	48 c7 47 04 00 00 00 	movq   $0x0,0x4(%rdi)
    348011ed:	00 
    348011ee:	c3                   	retq   
    348011ef:	90                   	nop

00000000348011f0 <randwc>:
    348011f0:	53                   	push   %rbx
    348011f1:	89 fb                	mov    %edi,%ebx
    348011f3:	31 ff                	xor    %edi,%edi
    348011f5:	e8 16 00 00 00       	callq  34801210 <randnum>
    348011fa:	99                   	cltd   
    348011fb:	f7 fb                	idiv   %ebx
    348011fd:	89 d0                	mov    %edx,%eax
    348011ff:	5b                   	pop    %rbx
    34801200:	c3                   	retq   
    34801201:	66 66 66 66 66 66 2e 	data16 data16 data16 data16 data16 nopw %cs:0x0(%rax,%rax,1)
    34801208:	0f 1f 84 00 00 00 00 
    3480120f:	00 

0000000034801210 <randnum>:
    34801210:	85 ff                	test   %edi,%edi
    34801212:	0f 84 23 00 00 00    	je     3480123b <randnum+0x2b>
    34801218:	c7 05 fe 5d 21 00 0d 	movl   $0xd,0x215dfe(%rip)        # 34a17020 <randnum.randw.0>
    3480121f:	00 00 00 
    34801222:	c7 05 f8 5d 21 00 75 	movl   $0x75,0x215df8(%rip)        # 34a17024 <randnum.randw.1>
    34801229:	00 00 00 
    3480122c:	b9 0d 00 00 00       	mov    $0xd,%ecx
    34801231:	b8 62 6a b1 03       	mov    $0x3b16a62,%eax
    34801236:	e9 10 00 00 00       	jmpq   3480124b <randnum+0x3b>
    3480123b:	8b 0d df 5d 21 00    	mov    0x215ddf(%rip),%ecx        # 34a17020 <randnum.randw.0>
    34801241:	69 05 d9 5d 21 00 9a 	imul   $0x8149a,0x215dd9(%rip),%eax        # 34a17024 <randnum.randw.1>
    34801248:	14 08 00 
    3480124b:	69 d1 22 e3 03 00    	imul   $0x3e322,%ecx,%edx
    34801251:	01 c2                	add    %eax,%edx
    34801253:	48 63 c2             	movslq %edx,%rax
    34801256:	48 69 d0 99 c2 46 86 	imul   $0xffffffff8646c299,%rax,%rdx
    3480125d:	48 c1 ea 20          	shr    $0x20,%rdx
    34801261:	01 c2                	add    %eax,%edx
    34801263:	89 d6                	mov    %edx,%esi
    34801265:	c1 ee 1f             	shr    $0x1f,%esi
    34801268:	c1 fa 13             	sar    $0x13,%edx
    3480126b:	01 f2                	add    %esi,%edx
    3480126d:	69 d2 8b 40 0f 00    	imul   $0xf408b,%edx,%edx
    34801273:	29 d0                	sub    %edx,%eax
    34801275:	89 0d a9 5d 21 00    	mov    %ecx,0x215da9(%rip)        # 34a17024 <randnum.randw.1>
    3480127b:	89 05 9f 5d 21 00    	mov    %eax,0x215d9f(%rip)        # 34a17020 <randnum.randw.0>
    34801281:	c3                   	retq   
    34801282:	66 66 66 66 66 2e 0f 	data16 data16 data16 data16 nopw %cs:0x0(%rax,%rax,1)
    34801289:	1f 84 00 00 00 00 00 

0000000034801290 <abs_randwc>:
    34801290:	50                   	push   %rax
    34801291:	e8 5a ff ff ff       	callq  348011f0 <randwc>
    34801296:	89 c1                	mov    %eax,%ecx
    34801298:	f7 d9                	neg    %ecx
    3480129a:	0f 4c c8             	cmovl  %eax,%ecx
    3480129d:	89 c8                	mov    %ecx,%eax
    3480129f:	59                   	pop    %rcx
    348012a0:	c3                   	retq   
    348012a1:	66 2e 0f 1f 84 00 00 	nopw   %cs:0x0(%rax,%rax,1)
    348012a8:	00 00 00 
    348012ab:	0f 1f 44 00 00       	nopl   0x0(%rax,%rax,1)

00000000348012b0 <enclave_main>:
    348012b0:	48 c7 05 a5 77 b1 00 	movq   $0x3c,0xb177a5(%rip)        # 35318a60 <global_min_ticks>
    348012b7:	3c 00 00 00 
    348012bb:	48 c7 05 62 77 b1 00 	movq   $0x5,0xb17762(%rip)        # 35318a28 <global_min_seconds>
    348012c2:	05 00 00 00 
    348012c6:	c7 05 60 77 b1 00 00 	movl   $0x0,0xb17760(%rip)        # 35318a30 <global_allstats>
    348012cd:	00 00 00 
    348012d0:	c7 05 c2 77 b1 00 00 	movl   $0x0,0xb177c2(%rip)        # 35318a9c <global_custrun>
    348012d7:	00 00 00 
    348012da:	c7 05 b4 77 b1 00 08 	movl   $0x8,0xb177b4(%rip)        # 35318a98 <global_align>
    348012e1:	00 00 00 
    348012e4:	c7 05 7e 77 b1 00 00 	movl   $0x0,0xb1777e(%rip)        # 35318a6c <mem_array_ents>
    348012eb:	00 00 00 
    348012ee:	48 c7 c0 d8 ff ff ff 	mov    $0xffffffffffffffd8,%rax
    348012f5:	66 66 2e 0f 1f 84 00 	data16 nopw %cs:0x0(%rax,%rax,1)
    348012fc:	00 00 00 00 
    34801300:	c7 80 98 8a 31 35 01 	movl   $0x1,0x35318a98(%rax)
    34801307:	00 00 00 
    3480130a:	48 83 c0 04          	add    $0x4,%rax
    3480130e:	0f 85 ec ff ff ff    	jne    34801300 <enclave_main+0x50>
    34801314:	41 54                	push   %r12
    34801316:	53                   	push   %rbx
    34801317:	48 83 ec 48          	sub    $0x48,%rsp
    3480131b:	e8 a0 03 00 00       	callq  348016c0 <set_request_secs>
    34801320:	c7 05 3e 71 b1 00 00 	movl   $0x0,0xb1713e(%rip)        # 35318468 <global_numsortstruct>
    34801327:	00 00 00 
    3480132a:	48 c7 05 53 71 b1 00 	movq   $0x1faf,0xb17153(%rip)        # 35318488 <global_numsortstruct+0x20>
    34801331:	af 1f 00 00 
    34801335:	c7 05 f9 76 b1 00 00 	movl   $0x0,0xb176f9(%rip)        # 35318a38 <global_strsortstruct>
    3480133c:	00 00 00 
    3480133f:	48 c7 05 0e 77 b1 00 	movq   $0x1faf,0xb1770e(%rip)        # 35318a58 <global_strsortstruct+0x20>
    34801346:	af 1f 00 00 
    3480134a:	c7 05 3c 71 b1 00 00 	movl   $0x0,0xb1713c(%rip)        # 35318490 <global_bitopstruct>
    34801351:	00 00 00 
    34801354:	48 c7 05 51 71 b1 00 	movq   $0x4000,0xb17151(%rip)        # 353184b0 <global_bitopstruct+0x20>
    3480135b:	00 40 00 00 
    3480135f:	c7 05 a7 6c b1 00 00 	movl   $0x0,0xb16ca7(%rip)        # 35318010 <global_emfloatstruct>
    34801366:	00 00 00 
    34801369:	48 c7 05 ac 6c b1 00 	movq   $0xbb8,0xb16cac(%rip)        # 35318020 <global_emfloatstruct+0x10>
    34801370:	b8 0b 00 00 
    34801374:	c7 05 8a 77 b1 00 00 	movl   $0x0,0xb1778a(%rip)        # 35318b08 <global_fourierstruct>
    3480137b:	00 00 00 
    3480137e:	c7 05 18 77 b1 00 00 	movl   $0x0,0xb17718(%rip)        # 35318aa0 <global_assignstruct>
    34801385:	00 00 00 
    34801388:	c7 05 4e 77 b1 00 00 	movl   $0x0,0xb1774e(%rip)        # 35318ae0 <global_ideastruct>
    3480138f:	00 00 00 
    34801392:	48 c7 05 53 77 b1 00 	movq   $0xfa0,0xb17753(%rip)        # 35318af0 <global_ideastruct+0x10>
    34801399:	a0 0f 00 00 
    3480139d:	c7 05 59 76 b1 00 00 	movl   $0x0,0xb17659(%rip)        # 35318a00 <global_huffstruct>
    348013a4:	00 00 00 
    348013a7:	48 c7 05 5e 76 b1 00 	movq   $0x1388,0xb1765e(%rip)        # 35318a10 <global_huffstruct+0x10>
    348013ae:	88 13 00 00 
    348013b2:	c7 05 04 77 b1 00 00 	movl   $0x0,0xb17704(%rip)        # 35318ac0 <global_nnetstruct>
    348013b9:	00 00 00 
    348013bc:	c7 05 82 70 b1 00 00 	movl   $0x0,0xb17082(%rip)        # 35318448 <global_lustruct>
    348013c3:	00 00 00 
    348013c6:	bf 7d 32 81 34       	mov    $0x3481327d,%edi
    348013cb:	e8 40 03 00 00       	callq  34801710 <output_string>
    348013d0:	bf ae 32 81 34       	mov    $0x348132ae,%edi
    348013d5:	e8 36 03 00 00       	callq  34801710 <output_string>
    348013da:	bf d6 32 81 34       	mov    $0x348132d6,%edi
    348013df:	e8 2c 03 00 00       	callq  34801710 <output_string>
    348013e4:	bf 06 33 81 34       	mov    $0x34813306,%edi
    348013e9:	e8 22 03 00 00       	callq  34801710 <output_string>
    348013ee:	bf 49 33 81 34       	mov    $0x34813349,%edi
    348013f3:	e8 18 03 00 00       	callq  34801710 <output_string>
    348013f8:	bf 8d 33 81 34       	mov    $0x3481338d,%edi
    348013fd:	e8 0e 03 00 00       	callq  34801710 <output_string>
    34801402:	f2 0f 10 05 56 1b 01 	movsd  0x11b56(%rip),%xmm0        # 34812f60 <DoEmFloatIteration.jtable+0x40>
    34801409:	00 
    3480140a:	4c 8d 64 24 38       	lea    0x38(%rsp),%r12
    3480140f:	bb 00 00 00 00       	mov    $0x0,%ebx
    34801414:	f2 0f 11 44 24 18    	movsd  %xmm0,0x18(%rsp)
    3480141a:	f2 0f 11 44 24 28    	movsd  %xmm0,0x28(%rsp)
    34801420:	f2 0f 11 44 24 10    	movsd  %xmm0,0x10(%rsp)
    34801426:	f2 0f 11 44 24 20    	movsd  %xmm0,0x20(%rsp)
    3480142c:	f2 0f 11 44 24 08    	movsd  %xmm0,0x8(%rsp)
    34801432:	e9 29 00 00 00       	jmpq   34801460 <enclave_main+0x1b0>
    34801437:	f2 0f 5e 04 dd f0 70 	divsd  0x34a170f0(,%rbx,8),%xmm0
    3480143e:	a1 34 
    34801440:	f2 0f 10 4c 24 08    	movsd  0x8(%rsp),%xmm1
    34801446:	f2 0f 59 c8          	mulsd  %xmm0,%xmm1
    3480144a:	f2 0f 11 4c 24 08    	movsd  %xmm1,0x8(%rsp)
    34801450:	e9 2b 01 00 00       	jmpq   34801580 <enclave_main+0x2d0>
    34801455:	66 66 2e 0f 1f 84 00 	data16 nopw %cs:0x0(%rax,%rax,1)
    3480145c:	00 00 00 00 
    34801460:	83 3c 9d 70 8a 31 35 	cmpl   $0x0,0x35318a70(,%rbx,4)
    34801467:	00 
    34801468:	0f 84 12 01 00 00    	je     34801580 <enclave_main+0x2d0>
    3480146e:	48 8b 14 dd 50 70 a1 	mov    0x34a17050(,%rbx,8),%rdx
    34801475:	34 
    34801476:	bf 00 86 31 35       	mov    $0x35318600,%edi
    3480147b:	be d1 33 81 34       	mov    $0x348133d1,%esi
    34801480:	31 c0                	xor    %eax,%eax
    34801482:	e8 f9 ad 00 00       	callq  3480c280 <sprintf>
    34801487:	bf 00 86 31 35       	mov    $0x35318600,%edi
    3480148c:	e8 7f 02 00 00       	callq  34801710 <output_string>
    34801491:	89 df                	mov    %ebx,%edi
    34801493:	48 8d 74 24 30       	lea    0x30(%rsp),%rsi
    34801498:	48 8d 54 24 40       	lea    0x40(%rsp),%rdx
    3480149d:	4c 89 e1             	mov    %r12,%rcx
    348014a0:	e8 7b 02 00 00       	callq  34801720 <bench_with_confidence>
    348014a5:	85 c0                	test   %eax,%eax
    348014a7:	0f 84 1e 00 00 00    	je     348014cb <enclave_main+0x21b>
    348014ad:	bf d9 33 81 34       	mov    $0x348133d9,%edi
    348014b2:	e8 59 02 00 00       	callq  34801710 <output_string>
    348014b7:	bf 22 34 81 34       	mov    $0x34813422,%edi
    348014bc:	e8 4f 02 00 00       	callq  34801710 <output_string>
    348014c1:	bf 68 34 81 34       	mov    $0x34813468,%edi
    348014c6:	e8 45 02 00 00       	callq  34801710 <output_string>
    348014cb:	83 fb 09             	cmp    $0x9,%ebx
    348014ce:	0f 87 4f 00 00 00    	ja     34801523 <enclave_main+0x273>
    348014d4:	b8 10 03 00 00       	mov    $0x310,%eax
    348014d9:	0f a3 d8             	bt     %ebx,%eax
    348014dc:	0f 83 41 00 00 00    	jae    34801523 <enclave_main+0x273>
    348014e2:	f2 0f 10 44 24 30    	movsd  0x30(%rsp),%xmm0
    348014e8:	66 0f 28 c8          	movapd %xmm0,%xmm1
    348014ec:	f2 0f 5e 0c dd a0 70 	divsd  0x34a170a0(,%rbx,8),%xmm1
    348014f3:	a1 34 
    348014f5:	f2 0f 10 54 24 20    	movsd  0x20(%rsp),%xmm2
    348014fb:	f2 0f 59 d1          	mulsd  %xmm1,%xmm2
    348014ff:	f2 0f 11 54 24 20    	movsd  %xmm2,0x20(%rsp)
    34801505:	f2 0f 5e 04 dd f0 70 	divsd  0x34a170f0(,%rbx,8),%xmm0
    3480150c:	a1 34 
    3480150e:	f2 0f 10 4c 24 28    	movsd  0x28(%rsp),%xmm1
    34801514:	f2 0f 59 c8          	mulsd  %xmm0,%xmm1
    34801518:	f2 0f 11 4c 24 28    	movsd  %xmm1,0x28(%rsp)
    3480151e:	e9 5d 00 00 00       	jmpq   34801580 <enclave_main+0x2d0>
    34801523:	f2 0f 10 44 24 30    	movsd  0x30(%rsp),%xmm0
    34801529:	66 0f 28 c8          	movapd %xmm0,%xmm1
    3480152d:	f2 0f 5e 0c dd a0 70 	divsd  0x34a170a0(,%rbx,8),%xmm1
    34801534:	a1 34 
    34801536:	f2 0f 10 54 24 18    	movsd  0x18(%rsp),%xmm2
    3480153c:	f2 0f 59 d1          	mulsd  %xmm1,%xmm2
    34801540:	f2 0f 11 54 24 18    	movsd  %xmm2,0x18(%rsp)
    34801546:	83 fb 07             	cmp    $0x7,%ebx
    34801549:	0f 87 e8 fe ff ff    	ja     34801437 <enclave_main+0x187>
    3480154f:	b8 c9 00 00 00       	mov    $0xc9,%eax
    34801554:	0f a3 d8             	bt     %ebx,%eax
    34801557:	0f 83 da fe ff ff    	jae    34801437 <enclave_main+0x187>
    3480155d:	f2 0f 5e 04 dd f0 70 	divsd  0x34a170f0(,%rbx,8),%xmm0
    34801564:	a1 34 
    34801566:	f2 0f 10 4c 24 10    	movsd  0x10(%rsp),%xmm1
    3480156c:	f2 0f 59 c8          	mulsd  %xmm0,%xmm1
    34801570:	f2 0f 11 4c 24 10    	movsd  %xmm1,0x10(%rsp)
    34801576:	66 2e 0f 1f 84 00 00 	nopw   %cs:0x0(%rax,%rax,1)
    3480157d:	00 00 00 
    34801580:	48 ff c3             	inc    %rbx
    34801583:	48 83 fb 0a          	cmp    $0xa,%rbx
    34801587:	0f 85 d3 fe ff ff    	jne    34801460 <enclave_main+0x1b0>
    3480158d:	83 3d 08 75 b1 00 00 	cmpl   $0x0,0xb17508(%rip)        # 35318a9c <global_custrun>
    34801594:	0f 85 18 01 00 00    	jne    348016b2 <enclave_main+0x402>
    3480159a:	bf 7e 34 81 34       	mov    $0x3481347e,%edi
    3480159f:	e8 6c 01 00 00       	callq  34801710 <output_string>
    348015a4:	f2 0f 10 0d bc 19 01 	movsd  0x119bc(%rip),%xmm1        # 34812f68 <DoEmFloatIteration.jtable+0x48>
    348015ab:	00 
    348015ac:	f2 0f 10 44 24 18    	movsd  0x18(%rsp),%xmm0
    348015b2:	e8 39 a2 00 00       	callq  3480b7f0 <pow>
    348015b7:	bf 00 86 31 35       	mov    $0x35318600,%edi
    348015bc:	be cd 34 81 34       	mov    $0x348134cd,%esi
    348015c1:	b0 01                	mov    $0x1,%al
    348015c3:	e8 b8 ac 00 00       	callq  3480c280 <sprintf>
    348015c8:	bf 00 86 31 35       	mov    $0x35318600,%edi
    348015cd:	e8 3e 01 00 00       	callq  34801710 <output_string>
    348015d2:	f2 0f 10 0d 96 19 01 	movsd  0x11996(%rip),%xmm1        # 34812f70 <DoEmFloatIteration.jtable+0x50>
    348015d9:	00 
    348015da:	f2 0f 10 44 24 20    	movsd  0x20(%rsp),%xmm0
    348015e0:	e8 0b a2 00 00       	callq  3480b7f0 <pow>
    348015e5:	bf 00 86 31 35       	mov    $0x35318600,%edi
    348015ea:	be e9 34 81 34       	mov    $0x348134e9,%esi
    348015ef:	b0 01                	mov    $0x1,%al
    348015f1:	e8 8a ac 00 00       	callq  3480c280 <sprintf>
    348015f6:	bf 00 86 31 35       	mov    $0x35318600,%edi
    348015fb:	e8 10 01 00 00       	callq  34801710 <output_string>
    34801600:	bf 05 35 81 34       	mov    $0x34813505,%edi
    34801605:	e8 06 01 00 00       	callq  34801710 <output_string>
    3480160a:	bf 50 35 81 34       	mov    $0x34813550,%edi
    3480160f:	e8 fc 00 00 00       	callq  34801710 <output_string>
    34801614:	f2 0f 10 0d 5c 19 01 	movsd  0x1195c(%rip),%xmm1        # 34812f78 <DoEmFloatIteration.jtable+0x58>
    3480161b:	00 
    3480161c:	f2 0f 10 44 24 08    	movsd  0x8(%rsp),%xmm0
    34801622:	e8 c9 a1 00 00       	callq  3480b7f0 <pow>
    34801627:	bf 00 86 31 35       	mov    $0x35318600,%edi
    3480162c:	be 9f 35 81 34       	mov    $0x3481359f,%esi
    34801631:	b0 01                	mov    $0x1,%al
    34801633:	e8 48 ac 00 00       	callq  3480c280 <sprintf>
    34801638:	bf 00 86 31 35       	mov    $0x35318600,%edi
    3480163d:	e8 ce 00 00 00       	callq  34801710 <output_string>
    34801642:	f2 0f 10 0d 36 19 01 	movsd  0x11936(%rip),%xmm1        # 34812f80 <DoEmFloatIteration.jtable+0x60>
    34801649:	00 
    3480164a:	f2 0f 10 44 24 10    	movsd  0x10(%rsp),%xmm0
    34801650:	e8 9b a1 00 00       	callq  3480b7f0 <pow>
    34801655:	bf 00 86 31 35       	mov    $0x35318600,%edi
    3480165a:	be cd 34 81 34       	mov    $0x348134cd,%esi
    3480165f:	b0 01                	mov    $0x1,%al
    34801661:	e8 1a ac 00 00       	callq  3480c280 <sprintf>
    34801666:	bf 00 86 31 35       	mov    $0x35318600,%edi
    3480166b:	e8 a0 00 00 00       	callq  34801710 <output_string>
    34801670:	f2 0f 10 44 24 28    	movsd  0x28(%rsp),%xmm0
    34801676:	f2 0f 10 0d fa 18 01 	movsd  0x118fa(%rip),%xmm1        # 34812f78 <DoEmFloatIteration.jtable+0x58>
    3480167d:	00 
    3480167e:	e8 6d a1 00 00       	callq  3480b7f0 <pow>
    34801683:	bf 00 86 31 35       	mov    $0x35318600,%edi
    34801688:	be e9 34 81 34       	mov    $0x348134e9,%esi
    3480168d:	b0 01                	mov    $0x1,%al
    3480168f:	e8 ec ab 00 00       	callq  3480c280 <sprintf>
    34801694:	bf 00 86 31 35       	mov    $0x35318600,%edi
    34801699:	e8 72 00 00 00       	callq  34801710 <output_string>
    3480169e:	bf bb 35 81 34       	mov    $0x348135bb,%edi
    348016a3:	e8 68 00 00 00       	callq  34801710 <output_string>
    348016a8:	bf 09 36 81 34       	mov    $0x34813609,%edi
    348016ad:	e8 5e 00 00 00       	callq  34801710 <output_string>
    348016b2:	31 ff                	xor    %edi,%edi
    348016b4:	e8 c7 b5 00 00       	callq  3480cc80 <exit>
    348016b9:	0f 1f 80 00 00 00 00 	nopl   0x0(%rax)

00000000348016c0 <set_request_secs>:
    348016c0:	48 8b 05 61 73 b1 00 	mov    0xb17361(%rip),%rax        # 35318a28 <global_min_seconds>
    348016c7:	48 89 05 a2 6d b1 00 	mov    %rax,0xb16da2(%rip)        # 35318470 <global_numsortstruct+0x8>
    348016ce:	48 89 05 6b 73 b1 00 	mov    %rax,0xb1736b(%rip)        # 35318a40 <global_strsortstruct+0x8>
    348016d5:	48 89 05 bc 6d b1 00 	mov    %rax,0xb16dbc(%rip)        # 35318498 <global_bitopstruct+0x8>
    348016dc:	48 89 05 35 69 b1 00 	mov    %rax,0xb16935(%rip)        # 35318018 <global_emfloatstruct+0x8>
    348016e3:	48 89 05 26 74 b1 00 	mov    %rax,0xb17426(%rip)        # 35318b10 <global_fourierstruct+0x8>
    348016ea:	48 89 05 b7 73 b1 00 	mov    %rax,0xb173b7(%rip)        # 35318aa8 <global_assignstruct+0x8>
    348016f1:	48 89 05 f0 73 b1 00 	mov    %rax,0xb173f0(%rip)        # 35318ae8 <global_ideastruct+0x8>
    348016f8:	48 89 05 09 73 b1 00 	mov    %rax,0xb17309(%rip)        # 35318a08 <global_huffstruct+0x8>
    348016ff:	48 89 05 c2 73 b1 00 	mov    %rax,0xb173c2(%rip)        # 35318ac8 <global_nnetstruct+0x8>
    34801706:	48 89 05 43 6d b1 00 	mov    %rax,0xb16d43(%rip)        # 35318450 <global_lustruct+0x8>
    3480170d:	c3                   	retq   
    3480170e:	66 90                	xchg   %ax,%ax

0000000034801710 <output_string>:
    34801710:	e9 ab b1 00 00       	jmpq   3480c8c0 <puts>
    34801715:	66 66 2e 0f 1f 84 00 	data16 nopw %cs:0x0(%rax,%rax,1)
    3480171c:	00 00 00 00 

0000000034801720 <bench_with_confidence>:
    34801720:	41 54                	push   %r12
    34801722:	53                   	push   %rbx
    34801723:	48 81 ec 18 01 00 00 	sub    $0x118,%rsp
    3480172a:	48 89 0c 24          	mov    %rcx,(%rsp)
    3480172e:	48 89 54 24 08       	mov    %rdx,0x8(%rsp)
    34801733:	48 89 74 24 18       	mov    %rsi,0x18(%rsp)
    34801738:	4c 63 e7             	movslq %edi,%r12
    3480173b:	31 db                	xor    %ebx,%ebx
    3480173d:	0f 1f 00             	nopl   (%rax)
    34801740:	42 ff 14 e5 e0 72 a1 	callq  *0x34a172e0(,%r12,8)
    34801747:	34 
    34801748:	44 89 e7             	mov    %r12d,%edi
    3480174b:	e8 d0 00 00 00       	callq  34801820 <getscore>
    34801750:	f2 0f 11 44 dc 20    	movsd  %xmm0,0x20(%rsp,%rbx,8)
    34801756:	48 ff c3             	inc    %rbx
    34801759:	48 83 fb 05          	cmp    $0x5,%rbx
    3480175d:	0f 85 dd ff ff ff    	jne    34801740 <bench_with_confidence+0x20>
    34801763:	48 8b 04 24          	mov    (%rsp),%rax
    34801767:	48 c7 00 05 00 00 00 	movq   $0x5,(%rax)
    3480176e:	48 8d 7c 24 20       	lea    0x20(%rsp),%rdi
    34801773:	48 8d 54 24 10       	lea    0x10(%rsp),%rdx
    34801778:	be 05 00 00 00       	mov    $0x5,%esi
    3480177d:	48 8b 5c 24 18       	mov    0x18(%rsp),%rbx
    34801782:	e9 36 00 00 00       	jmpq   348017bd <bench_with_confidence+0x9d>
    34801787:	66 0f 1f 84 00 00 00 	nopw   0x0(%rax,%rax,1)
    3480178e:	00 00 
    34801790:	42 ff 14 e5 e0 72 a1 	callq  *0x34a172e0(,%r12,8)
    34801797:	34 
    34801798:	44 89 e7             	mov    %r12d,%edi
    3480179b:	e8 80 00 00 00       	callq  34801820 <getscore>
    348017a0:	48 8b 04 24          	mov    (%rsp),%rax
    348017a4:	48 8b 30             	mov    (%rax),%rsi
    348017a7:	f2 0f 11 44 f4 20    	movsd  %xmm0,0x20(%rsp,%rsi,8)
    348017ad:	48 ff c6             	inc    %rsi
    348017b0:	48 89 30             	mov    %rsi,(%rax)
    348017b3:	48 8d 7c 24 20       	lea    0x20(%rsp),%rdi
    348017b8:	48 8d 54 24 10       	lea    0x10(%rsp),%rdx
    348017bd:	48 89 d9             	mov    %rbx,%rcx
    348017c0:	4c 8b 44 24 08       	mov    0x8(%rsp),%r8
    348017c5:	e8 36 01 00 00       	callq  34801900 <calc_confidence>
    348017ca:	85 c0                	test   %eax,%eax
    348017cc:	0f 85 2a 00 00 00    	jne    348017fc <bench_with_confidence+0xdc>
    348017d2:	f2 0f 10 44 24 10    	movsd  0x10(%rsp),%xmm0
    348017d8:	f2 0f 5e 03          	divsd  (%rbx),%xmm0
    348017dc:	f2 0f 10 0d a4 17 01 	movsd  0x117a4(%rip),%xmm1        # 34812f88 <DoEmFloatIteration.jtable+0x68>
    348017e3:	00 
    348017e4:	66 0f 2e c8          	ucomisd %xmm0,%xmm1
    348017e8:	0f 83 1e 00 00 00    	jae    3480180c <bench_with_confidence+0xec>
    348017ee:	48 8b 04 24          	mov    (%rsp),%rax
    348017f2:	48 83 38 1e          	cmpq   $0x1e,(%rax)
    348017f6:	0f 85 94 ff ff ff    	jne    34801790 <bench_with_confidence+0x70>
    348017fc:	b8 ff ff ff ff       	mov    $0xffffffff,%eax
    34801801:	48 81 c4 18 01 00 00 	add    $0x118,%rsp
    34801808:	5b                   	pop    %rbx
    34801809:	41 5c                	pop    %r12
    3480180b:	c3                   	retq   
    3480180c:	31 c0                	xor    %eax,%eax
    3480180e:	e9 ee ff ff ff       	jmpq   34801801 <bench_with_confidence+0xe1>
    34801813:	66 66 66 66 2e 0f 1f 	data16 data16 data16 nopw %cs:0x0(%rax,%rax,1)
    3480181a:	84 00 00 00 00 00 

0000000034801820 <getscore>:
    34801820:	0f 57 c0             	xorps  %xmm0,%xmm0
    34801823:	83 ff 04             	cmp    $0x4,%edi
    34801826:	0f 8f 2d 00 00 00    	jg     34801859 <getscore+0x39>
    3480182c:	83 ff 01             	cmp    $0x1,%edi
    3480182f:	0f 8e 51 00 00 00    	jle    34801886 <getscore+0x66>
    34801835:	83 ff 02             	cmp    $0x2,%edi
    34801838:	0f 84 7d 00 00 00    	je     348018bb <getscore+0x9b>
    3480183e:	83 ff 03             	cmp    $0x3,%edi
    34801841:	0f 84 7d 00 00 00    	je     348018c4 <getscore+0xa4>
    34801847:	83 ff 04             	cmp    $0x4,%edi
    3480184a:	0f 85 8e 00 00 00    	jne    348018de <getscore+0xbe>
    34801850:	f2 0f 10 05 c8 72 b1 	movsd  0xb172c8(%rip),%xmm0        # 35318b20 <global_fourierstruct+0x18>
    34801857:	00 
    34801858:	c3                   	retq   
    34801859:	83 ff 06             	cmp    $0x6,%edi
    3480185c:	0f 8e 3e 00 00 00    	jle    348018a0 <getscore+0x80>
    34801862:	83 ff 07             	cmp    $0x7,%edi
    34801865:	0f 84 62 00 00 00    	je     348018cd <getscore+0xad>
    3480186b:	83 ff 08             	cmp    $0x8,%edi
    3480186e:	0f 84 62 00 00 00    	je     348018d6 <getscore+0xb6>
    34801874:	83 ff 09             	cmp    $0x9,%edi
    34801877:	0f 85 61 00 00 00    	jne    348018de <getscore+0xbe>
    3480187d:	f2 0f 10 05 db 6b b1 	movsd  0xb16bdb(%rip),%xmm0        # 35318460 <global_lustruct+0x18>
    34801884:	00 
    34801885:	c3                   	retq   
    34801886:	85 ff                	test   %edi,%edi
    34801888:	0f 84 51 00 00 00    	je     348018df <getscore+0xbf>
    3480188e:	83 ff 01             	cmp    $0x1,%edi
    34801891:	0f 85 47 00 00 00    	jne    348018de <getscore+0xbe>
    34801897:	f2 0f 10 05 a9 71 b1 	movsd  0xb171a9(%rip),%xmm0        # 35318a48 <global_strsortstruct+0x10>
    3480189e:	00 
    3480189f:	c3                   	retq   
    348018a0:	83 ff 05             	cmp    $0x5,%edi
    348018a3:	0f 84 3f 00 00 00    	je     348018e8 <getscore+0xc8>
    348018a9:	83 ff 06             	cmp    $0x6,%edi
    348018ac:	0f 85 2c 00 00 00    	jne    348018de <getscore+0xbe>
    348018b2:	f2 0f 10 05 46 72 b1 	movsd  0xb17246(%rip),%xmm0        # 35318b00 <global_ideastruct+0x20>
    348018b9:	00 
    348018ba:	c3                   	retq   
    348018bb:	f2 0f 10 05 dd 6b b1 	movsd  0xb16bdd(%rip),%xmm0        # 353184a0 <global_bitopstruct+0x10>
    348018c2:	00 
    348018c3:	c3                   	retq   
    348018c4:	f2 0f 10 05 64 67 b1 	movsd  0xb16764(%rip),%xmm0        # 35318030 <global_emfloatstruct+0x20>
    348018cb:	00 
    348018cc:	c3                   	retq   
    348018cd:	f2 0f 10 05 4b 71 b1 	movsd  0xb1714b(%rip),%xmm0        # 35318a20 <global_huffstruct+0x20>
    348018d4:	00 
    348018d5:	c3                   	retq   
    348018d6:	f2 0f 10 05 fa 71 b1 	movsd  0xb171fa(%rip),%xmm0        # 35318ad8 <global_nnetstruct+0x18>
    348018dd:	00 
    348018de:	c3                   	retq   
    348018df:	f2 0f 10 05 91 6b b1 	movsd  0xb16b91(%rip),%xmm0        # 35318478 <global_numsortstruct+0x10>
    348018e6:	00 
    348018e7:	c3                   	retq   
    348018e8:	f2 0f 10 05 c8 71 b1 	movsd  0xb171c8(%rip),%xmm0        # 35318ab8 <global_assignstruct+0x18>
    348018ef:	00 
    348018f0:	c3                   	retq   
    348018f1:	66 66 66 66 66 66 2e 	data16 data16 data16 data16 data16 nopw %cs:0x0(%rax,%rax,1)
    348018f8:	0f 1f 84 00 00 00 00 
    348018ff:	00 

0000000034801900 <calc_confidence>:
    34801900:	41 54                	push   %r12
    34801902:	53                   	push   %rbx
    34801903:	48 83 ec 18          	sub    $0x18,%rsp
    34801907:	4d 89 c4             	mov    %r8,%r12
    3480190a:	8d 46 fe             	lea    -0x2(%rsi),%eax
    3480190d:	83 f8 1d             	cmp    $0x1d,%eax
    34801910:	0f 82 14 00 00 00    	jb     3480192a <calc_confidence+0x2a>
    34801916:	bf 40 36 81 34       	mov    $0x34813640,%edi
    3480191b:	e8 f0 fd ff ff       	callq  34801710 <output_string>
    34801920:	b8 ff ff ff ff       	mov    $0xffffffff,%eax
    34801925:	e9 fa 00 00 00       	jmpq   34801a24 <calc_confidence+0x124>
    3480192a:	48 c7 01 00 00 00 00 	movq   $0x0,(%rcx)
    34801931:	41 89 f0             	mov    %esi,%r8d
    34801934:	66 0f 57 c0          	xorpd  %xmm0,%xmm0
    34801938:	4c 89 c0             	mov    %r8,%rax
    3480193b:	48 89 fb             	mov    %rdi,%rbx
    3480193e:	66 90                	xchg   %ax,%ax
    34801940:	f2 0f 58 03          	addsd  (%rbx),%xmm0
    34801944:	f2 0f 11 01          	movsd  %xmm0,(%rcx)
    34801948:	48 83 c3 08          	add    $0x8,%rbx
    3480194c:	48 ff c8             	dec    %rax
    3480194f:	0f 85 eb ff ff ff    	jne    34801940 <calc_confidence+0x40>
    34801955:	f2 0f 2a d6          	cvtsi2sd %esi,%xmm2
    34801959:	f2 0f 5e c2          	divsd  %xmm2,%xmm0
    3480195d:	f2 0f 11 01          	movsd  %xmm0,(%rcx)
    34801961:	49 c7 04 24 00 00 00 	movq   $0x0,(%r12)
    34801968:	00 
    34801969:	66 0f 57 c0          	xorpd  %xmm0,%xmm0
    3480196d:	0f 1f 00             	nopl   (%rax)
    34801970:	f2 0f 10 0f          	movsd  (%rdi),%xmm1
    34801974:	f2 0f 5c 09          	subsd  (%rcx),%xmm1
    34801978:	f2 0f 59 c9          	mulsd  %xmm1,%xmm1
    3480197c:	f2 0f 58 c1          	addsd  %xmm1,%xmm0
    34801980:	f2 41 0f 11 04 24    	movsd  %xmm0,(%r12)
    34801986:	48 83 c7 08          	add    $0x8,%rdi
    3480198a:	49 ff c8             	dec    %r8
    3480198d:	0f 85 dd ff ff ff    	jne    34801970 <calc_confidence+0x70>
    34801993:	ff ce                	dec    %esi
    34801995:	0f 57 c9             	xorps  %xmm1,%xmm1
    34801998:	f2 0f 2a ce          	cvtsi2sd %esi,%xmm1
    3480199c:	f2 0f 5e c1          	divsd  %xmm1,%xmm0
    348019a0:	f2 41 0f 11 04 24    	movsd  %xmm0,(%r12)
    348019a6:	0f 57 c9             	xorps  %xmm1,%xmm1
    348019a9:	f2 0f 51 c8          	sqrtsd %xmm0,%xmm1
    348019ad:	66 0f 2e c9          	ucomisd %xmm1,%xmm1
    348019b1:	0f 8b 25 00 00 00    	jnp    348019dc <calc_confidence+0xdc>
    348019b7:	48 89 54 24 08       	mov    %rdx,0x8(%rsp)
    348019bc:	48 89 f3             	mov    %rsi,%rbx
    348019bf:	f2 0f 11 54 24 10    	movsd  %xmm2,0x10(%rsp)
    348019c5:	e8 46 a9 00 00       	callq  3480c310 <sqrt>
    348019ca:	f2 0f 10 54 24 10    	movsd  0x10(%rsp),%xmm2
    348019d0:	48 89 de             	mov    %rbx,%rsi
    348019d3:	48 8b 54 24 08       	mov    0x8(%rsp),%rdx
    348019d8:	66 0f 28 c8          	movapd %xmm0,%xmm1
    348019dc:	f2 41 0f 11 0c 24    	movsd  %xmm1,(%r12)
    348019e2:	48 63 c6             	movslq %esi,%rax
    348019e5:	f2 0f 59 0c c5 90 36 	mulsd  0x34813690(,%rax,8),%xmm1
    348019ec:	81 34 
    348019ee:	0f 57 c0             	xorps  %xmm0,%xmm0
    348019f1:	f2 0f 51 c2          	sqrtsd %xmm2,%xmm0
    348019f5:	66 0f 2e c0          	ucomisd %xmm0,%xmm0
    348019f9:	0f 8b 1b 00 00 00    	jnp    34801a1a <calc_confidence+0x11a>
    348019ff:	66 0f 28 c2          	movapd %xmm2,%xmm0
    34801a03:	48 89 d3             	mov    %rdx,%rbx
    34801a06:	f2 0f 11 4c 24 08    	movsd  %xmm1,0x8(%rsp)
    34801a0c:	e8 ff a8 00 00       	callq  3480c310 <sqrt>
    34801a11:	f2 0f 10 4c 24 08    	movsd  0x8(%rsp),%xmm1
    34801a17:	48 89 da             	mov    %rbx,%rdx
    34801a1a:	f2 0f 5e c8          	divsd  %xmm0,%xmm1
    34801a1e:	f2 0f 11 0a          	movsd  %xmm1,(%rdx)
    34801a22:	31 c0                	xor    %eax,%eax
    34801a24:	48 83 c4 18          	add    $0x18,%rsp
    34801a28:	5b                   	pop    %rbx
    34801a29:	41 5c                	pop    %r12
    34801a2b:	c3                   	retq   
    34801a2c:	0f 1f 40 00          	nopl   0x0(%rax)

0000000034801a30 <NumSift>:
    34801a30:	48 8d 04 36          	lea    (%rsi,%rsi,1),%rax
    34801a34:	48 39 d0             	cmp    %rdx,%rax
    34801a37:	0f 87 5e 00 00 00    	ja     34801a9b <NumSift+0x6b>
    34801a3d:	4c 8d 42 01          	lea    0x1(%rdx),%r8
    34801a41:	66 66 66 66 66 66 2e 	data16 data16 data16 data16 data16 nopw %cs:0x0(%rax,%rax,1)
    34801a48:	0f 1f 84 00 00 00 00 
    34801a4f:	00 
    34801a50:	48 39 d0             	cmp    %rdx,%rax
    34801a53:	0f 83 13 00 00 00    	jae    34801a6c <NumSift+0x3c>
    34801a59:	4c 8b 0c c7          	mov    (%rdi,%rax,8),%r9
    34801a5d:	48 89 c1             	mov    %rax,%rcx
    34801a60:	48 83 c9 01          	or     $0x1,%rcx
    34801a64:	4c 3b 0c cf          	cmp    (%rdi,%rcx,8),%r9
    34801a68:	48 0f 4c c1          	cmovl  %rcx,%rax
    34801a6c:	4c 8b 0c f7          	mov    (%rdi,%rsi,8),%r9
    34801a70:	4c 8b 14 c7          	mov    (%rdi,%rax,8),%r10
    34801a74:	4d 39 d1             	cmp    %r10,%r9
    34801a77:	4c 89 c1             	mov    %r8,%rcx
    34801a7a:	0f 8d 0b 00 00 00    	jge    34801a8b <NumSift+0x5b>
    34801a80:	4c 89 0c c7          	mov    %r9,(%rdi,%rax,8)
    34801a84:	4c 89 14 f7          	mov    %r10,(%rdi,%rsi,8)
    34801a88:	48 89 c1             	mov    %rax,%rcx
    34801a8b:	48 8d 04 09          	lea    (%rcx,%rcx,1),%rax
    34801a8f:	48 39 d0             	cmp    %rdx,%rax
    34801a92:	48 89 ce             	mov    %rcx,%rsi
    34801a95:	0f 86 b5 ff ff ff    	jbe    34801a50 <NumSift+0x20>
    34801a9b:	c3                   	retq   
    34801a9c:	0f 1f 40 00          	nopl   0x0(%rax)

0000000034801aa0 <DoNumSort>:
    34801aa0:	41 54                	push   %r12
    34801aa2:	53                   	push   %rbx
    34801aa3:	48 83 ec 68          	sub    $0x68,%rsp
    34801aa7:	83 3d ba 69 b1 00 00 	cmpl   $0x0,0xb169ba(%rip)        # 35318468 <global_numsortstruct>
    34801aae:	0f 84 4f 00 00 00    	je     34801b03 <DoNumSort+0x63>
    34801ab4:	0f b7 3d c5 69 b1 00 	movzwl 0xb169c5(%rip),%edi        # 35318480 <global_numsortstruct+0x18>
    34801abb:	48 0f af 3d c5 69 b1 	imul   0xb169c5(%rip),%rdi        # 35318488 <global_numsortstruct+0x20>
    34801ac2:	00 
    34801ac3:	48 c1 e7 03          	shl    $0x3,%rdi
    34801ac7:	48 8d 74 24 04       	lea    0x4(%rsp),%rsi
    34801acc:	e8 ef 51 00 00       	callq  34806cc0 <AllocateMemory>
    34801ad1:	49 89 c4             	mov    %rax,%r12
    34801ad4:	8b 74 24 04          	mov    0x4(%rsp),%esi
    34801ad8:	85 f6                	test   %esi,%esi
    34801ada:	0f 84 ea 00 00 00    	je     34801bca <DoNumSort+0x12a>
    34801ae0:	bf 7b 39 81 34       	mov    $0x3481397b,%edi
    34801ae5:	e8 26 54 00 00       	callq  34806f10 <ReportError>
    34801aea:	48 8d 74 24 04       	lea    0x4(%rsp),%rsi
    34801aef:	4c 89 e7             	mov    %r12,%rdi
    34801af2:	e8 e9 52 00 00       	callq  34806de0 <FreeMemory>
    34801af7:	31 c0                	xor    %eax,%eax
    34801af9:	e8 c2 54 00 00       	callq  34806fc0 <ErrorExit>
    34801afe:	e9 c7 00 00 00       	jmpq   34801bca <DoNumSort+0x12a>
    34801b03:	66 c7 05 74 69 b1 00 	movw   $0x1,0xb16974(%rip)        # 35318480 <global_numsortstruct+0x18>
    34801b0a:	01 00 
    34801b0c:	66 b8 01 00          	mov    $0x1,%ax
    34801b10:	48 8d 5c 24 04       	lea    0x4(%rsp),%rbx
    34801b15:	e9 1e 00 00 00       	jmpq   34801b38 <DoNumSort+0x98>
    34801b1a:	66 0f 1f 44 00 00    	nopw   0x0(%rax,%rax,1)
    34801b20:	bf 8c 39 81 34       	mov    $0x3481398c,%edi
    34801b25:	e8 96 ad 00 00       	callq  3480c8c0 <puts>
    34801b2a:	31 c0                	xor    %eax,%eax
    34801b2c:	e8 8f 54 00 00       	callq  34806fc0 <ErrorExit>
    34801b31:	66 8b 05 48 69 b1 00 	mov    0xb16948(%rip),%ax        # 35318480 <global_numsortstruct+0x18>
    34801b38:	0f b7 f8             	movzwl %ax,%edi
    34801b3b:	48 0f af 3d 45 69 b1 	imul   0xb16945(%rip),%rdi        # 35318488 <global_numsortstruct+0x20>
    34801b42:	00 
    34801b43:	48 c1 e7 03          	shl    $0x3,%rdi
    34801b47:	48 89 de             	mov    %rbx,%rsi
    34801b4a:	e8 71 51 00 00       	callq  34806cc0 <AllocateMemory>
    34801b4f:	49 89 c4             	mov    %rax,%r12
    34801b52:	8b 74 24 04          	mov    0x4(%rsp),%esi
    34801b56:	85 f6                	test   %esi,%esi
    34801b58:	0f 84 1c 00 00 00    	je     34801b7a <DoNumSort+0xda>
    34801b5e:	bf 7b 39 81 34       	mov    $0x3481397b,%edi
    34801b63:	e8 a8 53 00 00       	callq  34806f10 <ReportError>
    34801b68:	4c 89 e7             	mov    %r12,%rdi
    34801b6b:	48 89 de             	mov    %rbx,%rsi
    34801b6e:	e8 6d 52 00 00       	callq  34806de0 <FreeMemory>
    34801b73:	31 c0                	xor    %eax,%eax
    34801b75:	e8 46 54 00 00       	callq  34806fc0 <ErrorExit>
    34801b7a:	48 8b 35 07 69 b1 00 	mov    0xb16907(%rip),%rsi        # 35318488 <global_numsortstruct+0x20>
    34801b81:	0f b7 15 f8 68 b1 00 	movzwl 0xb168f8(%rip),%edx        # 35318480 <global_numsortstruct+0x18>
    34801b88:	4c 89 e7             	mov    %r12,%rdi
    34801b8b:	e8 70 01 00 00       	callq  34801d00 <DoNumSortIteration>
    34801b90:	48 3b 05 c9 6e b1 00 	cmp    0xb16ec9(%rip),%rax        # 35318a60 <global_min_ticks>
    34801b97:	0f 87 2d 00 00 00    	ja     34801bca <DoNumSort+0x12a>
    34801b9d:	4c 89 e7             	mov    %r12,%rdi
    34801ba0:	48 89 de             	mov    %rbx,%rsi
    34801ba3:	e8 38 52 00 00       	callq  34806de0 <FreeMemory>
    34801ba8:	0f b7 0d d1 68 b1 00 	movzwl 0xb168d1(%rip),%ecx        # 35318480 <global_numsortstruct+0x18>
    34801baf:	8d 41 01             	lea    0x1(%rcx),%eax
    34801bb2:	66 89 05 c7 68 b1 00 	mov    %ax,0xb168c7(%rip)        # 35318480 <global_numsortstruct+0x18>
    34801bb9:	81 f9 11 27 00 00    	cmp    $0x2711,%ecx
    34801bbf:	0f 82 73 ff ff ff    	jb     34801b38 <DoNumSort+0x98>
    34801bc5:	e9 56 ff ff ff       	jmpq   34801b20 <DoNumSort+0x80>
    34801bca:	66 0f 57 c0          	xorpd  %xmm0,%xmm0
    34801bce:	f2 0f 11 44 24 08    	movsd  %xmm0,0x8(%rsp)
    34801bd4:	31 db                	xor    %ebx,%ebx
    34801bd6:	66 2e 0f 1f 84 00 00 	nopw   %cs:0x0(%rax,%rax,1)
    34801bdd:	00 00 00 
    34801be0:	48 8b 35 a1 68 b1 00 	mov    0xb168a1(%rip),%rsi        # 35318488 <global_numsortstruct+0x20>
    34801be7:	0f b7 15 92 68 b1 00 	movzwl 0xb16892(%rip),%edx        # 35318480 <global_numsortstruct+0x18>
    34801bee:	4c 89 e7             	mov    %r12,%rdi
    34801bf1:	e8 0a 01 00 00       	callq  34801d00 <DoNumSortIteration>
    34801bf6:	48 01 c3             	add    %rax,%rbx
    34801bf9:	f2 0f 10 44 24 08    	movsd  0x8(%rsp),%xmm0
    34801bff:	f2 0f 58 05 59 13 01 	addsd  0x11359(%rip),%xmm0        # 34812f60 <DoEmFloatIteration.jtable+0x40>
    34801c06:	00 
    34801c07:	f2 0f 11 44 24 08    	movsd  %xmm0,0x8(%rsp)
    34801c0d:	48 89 df             	mov    %rbx,%rdi
    34801c10:	e8 db 53 00 00       	callq  34806ff0 <TicksToSecs>
    34801c15:	48 3b 05 54 68 b1 00 	cmp    0xb16854(%rip),%rax        # 35318470 <global_numsortstruct+0x8>
    34801c1c:	0f 82 be ff ff ff    	jb     34801be0 <DoNumSort+0x140>
    34801c22:	4c 89 64 24 18       	mov    %r12,0x18(%rsp)
    34801c27:	66 0f 57 d2          	xorpd  %xmm2,%xmm2
    34801c2b:	f2 0f 10 44 24 08    	movsd  0x8(%rsp),%xmm0
    34801c31:	45 31 e4             	xor    %r12d,%r12d
    34801c34:	66 0f 2e c2          	ucomisd %xmm2,%xmm0
    34801c38:	0f 86 38 00 00 00    	jbe    34801c76 <DoNumSort+0x1d6>
    34801c3e:	66 90                	xchg   %ax,%ax
    34801c40:	f2 0f 11 54 24 10    	movsd  %xmm2,0x10(%rsp)
    34801c46:	31 c0                	xor    %eax,%eax
    34801c48:	e8 83 53 00 00       	callq  34806fd0 <StartStopwatch>
    34801c4d:	48 89 c7             	mov    %rax,%rdi
    34801c50:	e8 8b 53 00 00       	callq  34806fe0 <StopStopwatch>
    34801c55:	f2 0f 10 54 24 10    	movsd  0x10(%rsp),%xmm2
    34801c5b:	f2 0f 10 44 24 08    	movsd  0x8(%rsp),%xmm0
    34801c61:	49 01 c4             	add    %rax,%r12
    34801c64:	f2 0f 58 15 f4 12 01 	addsd  0x112f4(%rip),%xmm2        # 34812f60 <DoEmFloatIteration.jtable+0x40>
    34801c6b:	00 
    34801c6c:	66 0f 2e c2          	ucomisd %xmm2,%xmm0
    34801c70:	0f 87 ca ff ff ff    	ja     34801c40 <DoNumSort+0x1a0>
    34801c76:	4c 29 e3             	sub    %r12,%rbx
    34801c79:	0f b7 05 00 68 b1 00 	movzwl 0xb16800(%rip),%eax        # 35318480 <global_numsortstruct+0x18>
    34801c80:	f2 0f 2a c8          	cvtsi2sd %eax,%xmm1
    34801c84:	f2 0f 59 c8          	mulsd  %xmm0,%xmm1
    34801c88:	f2 0f 11 4c 24 10    	movsd  %xmm1,0x10(%rsp)
    34801c8e:	48 89 df             	mov    %rbx,%rdi
    34801c91:	e8 7a 53 00 00       	callq  34807010 <TicksToFracSecs>
    34801c96:	f2 0f 10 4c 24 10    	movsd  0x10(%rsp),%xmm1
    34801c9c:	f2 0f 5e c8          	divsd  %xmm0,%xmm1
    34801ca0:	f2 0f 11 0d d0 67 b1 	movsd  %xmm1,0xb167d0(%rip)        # 35318478 <global_numsortstruct+0x10>
    34801ca7:	00 
    34801ca8:	48 89 df             	mov    %rbx,%rdi
    34801cab:	e8 60 53 00 00       	callq  34807010 <TicksToFracSecs>
    34801cb0:	f2 0f 5e 44 24 08    	divsd  0x8(%rsp),%xmm0
    34801cb6:	48 8d 5c 24 20       	lea    0x20(%rsp),%rbx
    34801cbb:	be ac 39 81 34       	mov    $0x348139ac,%esi
    34801cc0:	b0 01                	mov    $0x1,%al
    34801cc2:	48 89 df             	mov    %rbx,%rdi
    34801cc5:	e8 b6 a5 00 00       	callq  3480c280 <sprintf>
    34801cca:	48 89 df             	mov    %rbx,%rdi
    34801ccd:	e8 ee ab 00 00       	callq  3480c8c0 <puts>
    34801cd2:	48 8d 74 24 04       	lea    0x4(%rsp),%rsi
    34801cd7:	48 8b 7c 24 18       	mov    0x18(%rsp),%rdi
    34801cdc:	e8 ff 50 00 00       	callq  34806de0 <FreeMemory>
    34801ce1:	83 3d 80 67 b1 00 00 	cmpl   $0x0,0xb16780(%rip)        # 35318468 <global_numsortstruct>
    34801ce8:	0f 85 0a 00 00 00    	jne    34801cf8 <DoNumSort+0x258>
    34801cee:	c7 05 70 67 b1 00 01 	movl   $0x1,0xb16770(%rip)        # 35318468 <global_numsortstruct>
    34801cf5:	00 00 00 
    34801cf8:	48 83 c4 68          	add    $0x68,%rsp
    34801cfc:	5b                   	pop    %rbx
    34801cfd:	41 5c                	pop    %r12
    34801cff:	c3                   	retq   

0000000034801d00 <DoNumSortIteration>:
    34801d00:	41 54                	push   %r12
    34801d02:	53                   	push   %rbx
    34801d03:	48 83 ec 18          	sub    $0x18,%rsp
    34801d07:	41 89 d4             	mov    %edx,%r12d
    34801d0a:	48 89 fb             	mov    %rdi,%rbx
    34801d0d:	48 89 34 24          	mov    %rsi,(%rsp)
    34801d11:	e8 5a 28 00 00       	callq  34804570 <LoadNumArrayWithRand>
    34801d16:	31 c0                	xor    %eax,%eax
    34801d18:	e8 b3 52 00 00       	callq  34806fd0 <StartStopwatch>
    34801d1d:	48 89 44 24 08       	mov    %rax,0x8(%rsp)
    34801d22:	45 85 e4             	test   %r12d,%r12d
    34801d25:	0f 84 3f 00 00 00    	je     34801d6a <DoNumSortIteration+0x6a>
    34801d2b:	45 89 e4             	mov    %r12d,%r12d
    34801d2e:	48 8b 04 24          	mov    (%rsp),%rax
    34801d32:	48 8d 48 ff          	lea    -0x1(%rax),%rcx
    34801d36:	48 89 4c 24 10       	mov    %rcx,0x10(%rsp)
    34801d3b:	48 c1 e0 03          	shl    $0x3,%rax
    34801d3f:	48 89 04 24          	mov    %rax,(%rsp)
    34801d43:	66 66 66 66 2e 0f 1f 	data16 data16 data16 nopw %cs:0x0(%rax,%rax,1)
    34801d4a:	84 00 00 00 00 00 
    34801d50:	48 89 df             	mov    %rbx,%rdi
    34801d53:	48 8b 74 24 10       	mov    0x10(%rsp),%rsi
    34801d58:	e8 73 29 00 00       	callq  348046d0 <NumHeapSort>
    34801d5d:	48 03 1c 24          	add    (%rsp),%rbx
    34801d61:	49 ff cc             	dec    %r12
    34801d64:	0f 85 e6 ff ff ff    	jne    34801d50 <DoNumSortIteration+0x50>
    34801d6a:	48 8b 7c 24 08       	mov    0x8(%rsp),%rdi
    34801d6f:	48 83 c4 18          	add    $0x18,%rsp
    34801d73:	5b                   	pop    %rbx
    34801d74:	41 5c                	pop    %r12
    34801d76:	e9 65 52 00 00       	jmpq   34806fe0 <StopStopwatch>
    34801d7b:	0f 1f 44 00 00       	nopl   0x0(%rax,%rax,1)

0000000034801d80 <DoStringSort>:
    34801d80:	41 54                	push   %r12
    34801d82:	53                   	push   %rbx
    34801d83:	48 83 ec 58          	sub    $0x58,%rsp
    34801d87:	83 3d aa 6c b1 00 00 	cmpl   $0x0,0xb16caa(%rip)        # 35318a38 <global_strsortstruct>
    34801d8e:	0f 84 45 00 00 00    	je     34801dd9 <DoStringSort+0x59>
    34801d94:	48 8b 05 bd 6c b1 00 	mov    0xb16cbd(%rip),%rax        # 35318a58 <global_strsortstruct+0x20>
    34801d9b:	48 83 c0 64          	add    $0x64,%rax
    34801d9f:	0f b7 3d aa 6c b1 00 	movzwl 0xb16caa(%rip),%edi        # 35318a50 <global_strsortstruct+0x18>
    34801da6:	48 0f af f8          	imul   %rax,%rdi
    34801daa:	48 8d 74 24 04       	lea    0x4(%rsp),%rsi
    34801daf:	e8 0c 4f 00 00       	callq  34806cc0 <AllocateMemory>
    34801db4:	49 89 c4             	mov    %rax,%r12
    34801db7:	8b 74 24 04          	mov    0x4(%rsp),%esi
    34801dbb:	85 f6                	test   %esi,%esi
    34801dbd:	0f 84 a5 00 00 00    	je     34801e68 <DoStringSort+0xe8>
    34801dc3:	bf b2 39 81 34       	mov    $0x348139b2,%edi
    34801dc8:	e8 43 51 00 00       	callq  34806f10 <ReportError>
    34801dcd:	31 c0                	xor    %eax,%eax
    34801dcf:	e8 ec 51 00 00       	callq  34806fc0 <ErrorExit>
    34801dd4:	e9 8f 00 00 00       	jmpq   34801e68 <DoStringSort+0xe8>
    34801dd9:	66 b8 01 00          	mov    $0x1,%ax
    34801ddd:	48 8d 5c 24 04       	lea    0x4(%rsp),%rbx
    34801de2:	e9 1d 00 00 00       	jmpq   34801e04 <DoStringSort+0x84>
    34801de7:	66 0f 1f 84 00 00 00 	nopw   0x0(%rax,%rax,1)
    34801dee:	00 00 
    34801df0:	4c 89 e7             	mov    %r12,%rdi
    34801df3:	48 89 de             	mov    %rbx,%rsi
    34801df6:	e8 e5 4f 00 00       	callq  34806de0 <FreeMemory>
    34801dfb:	0f b7 05 4e 6c b1 00 	movzwl 0xb16c4e(%rip),%eax        # 35318a50 <global_strsortstruct+0x18>
    34801e02:	ff c0                	inc    %eax
    34801e04:	66 89 05 45 6c b1 00 	mov    %ax,0xb16c45(%rip)        # 35318a50 <global_strsortstruct+0x18>
    34801e0b:	48 8b 0d 46 6c b1 00 	mov    0xb16c46(%rip),%rcx        # 35318a58 <global_strsortstruct+0x20>
    34801e12:	48 83 c1 64          	add    $0x64,%rcx
    34801e16:	0f b7 f8             	movzwl %ax,%edi
    34801e19:	48 0f af f9          	imul   %rcx,%rdi
    34801e1d:	48 89 de             	mov    %rbx,%rsi
    34801e20:	e8 9b 4e 00 00       	callq  34806cc0 <AllocateMemory>
    34801e25:	49 89 c4             	mov    %rax,%r12
    34801e28:	8b 74 24 04          	mov    0x4(%rsp),%esi
    34801e2c:	85 f6                	test   %esi,%esi
    34801e2e:	0f 84 11 00 00 00    	je     34801e45 <DoStringSort+0xc5>
    34801e34:	bf b2 39 81 34       	mov    $0x348139b2,%edi
    34801e39:	e8 d2 50 00 00       	callq  34806f10 <ReportError>
    34801e3e:	31 c0                	xor    %eax,%eax
    34801e40:	e8 7b 51 00 00       	callq  34806fc0 <ErrorExit>
    34801e45:	0f b7 35 04 6c b1 00 	movzwl 0xb16c04(%rip),%esi        # 35318a50 <global_strsortstruct+0x18>
    34801e4c:	48 8b 15 05 6c b1 00 	mov    0xb16c05(%rip),%rdx        # 35318a58 <global_strsortstruct+0x20>
    34801e53:	4c 89 e7             	mov    %r12,%rdi
    34801e56:	e8 e5 00 00 00       	callq  34801f40 <DoStringSortIteration>
    34801e5b:	48 3b 05 fe 6b b1 00 	cmp    0xb16bfe(%rip),%rax        # 35318a60 <global_min_ticks>
    34801e62:	0f 86 88 ff ff ff    	jbe    34801df0 <DoStringSort+0x70>
    34801e68:	66 0f 57 c0          	xorpd  %xmm0,%xmm0
    34801e6c:	f2 0f 11 44 24 08    	movsd  %xmm0,0x8(%rsp)
    34801e72:	31 db                	xor    %ebx,%ebx
    34801e74:	66 66 66 2e 0f 1f 84 	data16 data16 nopw %cs:0x0(%rax,%rax,1)
    34801e7b:	00 00 00 00 00 
    34801e80:	0f b7 35 c9 6b b1 00 	movzwl 0xb16bc9(%rip),%esi        # 35318a50 <global_strsortstruct+0x18>
    34801e87:	48 8b 15 ca 6b b1 00 	mov    0xb16bca(%rip),%rdx        # 35318a58 <global_strsortstruct+0x20>
    34801e8e:	4c 89 e7             	mov    %r12,%rdi
    34801e91:	e8 aa 00 00 00       	callq  34801f40 <DoStringSortIteration>
    34801e96:	48 01 c3             	add    %rax,%rbx
    34801e99:	0f b7 05 b0 6b b1 00 	movzwl 0xb16bb0(%rip),%eax        # 35318a50 <global_strsortstruct+0x18>
    34801ea0:	0f 57 c0             	xorps  %xmm0,%xmm0
    34801ea3:	f2 0f 2a c0          	cvtsi2sd %eax,%xmm0
    34801ea7:	f2 0f 10 4c 24 08    	movsd  0x8(%rsp),%xmm1
    34801ead:	f2 0f 58 c8          	addsd  %xmm0,%xmm1
    34801eb1:	f2 0f 11 4c 24 08    	movsd  %xmm1,0x8(%rsp)
    34801eb7:	48 89 df             	mov    %rbx,%rdi
    34801eba:	e8 31 51 00 00       	callq  34806ff0 <TicksToSecs>
    34801ebf:	48 3b 05 7a 6b b1 00 	cmp    0xb16b7a(%rip),%rax        # 35318a40 <global_strsortstruct+0x8>
    34801ec6:	0f 82 b4 ff ff ff    	jb     34801e80 <DoStringSort+0x100>
    34801ecc:	48 8d 74 24 04       	lea    0x4(%rsp),%rsi
    34801ed1:	4c 89 e7             	mov    %r12,%rdi
    34801ed4:	e8 07 4f 00 00       	callq  34806de0 <FreeMemory>
    34801ed9:	48 89 df             	mov    %rbx,%rdi
    34801edc:	e8 2f 51 00 00       	callq  34807010 <TicksToFracSecs>
    34801ee1:	f2 0f 10 4c 24 08    	movsd  0x8(%rsp),%xmm1
    34801ee7:	f2 0f 5e c8          	divsd  %xmm0,%xmm1
    34801eeb:	f2 0f 11 0d 55 6b b1 	movsd  %xmm1,0xb16b55(%rip)        # 35318a48 <global_strsortstruct+0x10>
    34801ef2:	00 
    34801ef3:	48 89 df             	mov    %rbx,%rdi
    34801ef6:	e8 15 51 00 00       	callq  34807010 <TicksToFracSecs>
    34801efb:	f2 0f 5e 44 24 08    	divsd  0x8(%rsp),%xmm0
    34801f01:	48 8d 5c 24 10       	lea    0x10(%rsp),%rbx
    34801f06:	be ac 39 81 34       	mov    $0x348139ac,%esi
    34801f0b:	b0 01                	mov    $0x1,%al
    34801f0d:	48 89 df             	mov    %rbx,%rdi
    34801f10:	e8 6b a3 00 00       	callq  3480c280 <sprintf>
    34801f15:	48 89 df             	mov    %rbx,%rdi
    34801f18:	e8 a3 a9 00 00       	callq  3480c8c0 <puts>
    34801f1d:	83 3d 14 6b b1 00 00 	cmpl   $0x0,0xb16b14(%rip)        # 35318a38 <global_strsortstruct>
    34801f24:	0f 85 0a 00 00 00    	jne    34801f34 <DoStringSort+0x1b4>
    34801f2a:	c7 05 04 6b b1 00 01 	movl   $0x1,0xb16b04(%rip)        # 35318a38 <global_strsortstruct>
    34801f31:	00 00 00 
    34801f34:	48 83 c4 58          	add    $0x58,%rsp
    34801f38:	5b                   	pop    %rbx
    34801f39:	41 5c                	pop    %r12
    34801f3b:	c3                   	retq   
    34801f3c:	0f 1f 40 00          	nopl   0x0(%rax)

0000000034801f40 <DoStringSortIteration>:
    34801f40:	41 54                	push   %r12
    34801f42:	53                   	push   %rbx
    34801f43:	48 83 ec 48          	sub    $0x48,%rsp
    34801f47:	48 89 d0             	mov    %rdx,%rax
    34801f4a:	89 f3                	mov    %esi,%ebx
    34801f4c:	49 89 fc             	mov    %rdi,%r12
    34801f4f:	48 8d 54 24 38       	lea    0x38(%rsp),%rdx
    34801f54:	48 89 44 24 10       	mov    %rax,0x10(%rsp)
    34801f59:	48 89 c1             	mov    %rax,%rcx
    34801f5c:	e8 ef 27 00 00       	callq  34804750 <LoadStringArray>
    34801f61:	48 89 44 24 08       	mov    %rax,0x8(%rsp)
    34801f66:	31 c0                	xor    %eax,%eax
    34801f68:	e8 63 50 00 00       	callq  34806fd0 <StartStopwatch>
    34801f6d:	89 d9                	mov    %ebx,%ecx
    34801f6f:	48 89 44 24 18       	mov    %rax,0x18(%rsp)
    34801f74:	85 c9                	test   %ecx,%ecx
    34801f76:	0f 84 63 00 00 00    	je     34801fdf <DoStringSortIteration+0x9f>
    34801f7c:	48 8b 44 24 38       	mov    0x38(%rsp),%rax
    34801f81:	48 8d 50 ff          	lea    -0x1(%rax),%rdx
    34801f85:	48 89 54 24 28       	mov    %rdx,0x28(%rsp)
    34801f8a:	48 83 44 24 10 64    	addq   $0x64,0x10(%rsp)
    34801f90:	48 89 44 24 30       	mov    %rax,0x30(%rsp)
    34801f95:	48 8d 04 c5 00 00 00 	lea    0x0(,%rax,8),%rax
    34801f9c:	00 
    34801f9d:	48 89 44 24 20       	mov    %rax,0x20(%rsp)
    34801fa2:	48 8b 5c 24 08       	mov    0x8(%rsp),%rbx
    34801fa7:	66 0f 1f 84 00 00 00 	nopw   0x0(%rax,%rax,1)
    34801fae:	00 00 
    34801fb0:	89 4c 24 04          	mov    %ecx,0x4(%rsp)
    34801fb4:	48 89 df             	mov    %rbx,%rdi
    34801fb7:	4c 89 e6             	mov    %r12,%rsi
    34801fba:	48 8b 54 24 30       	mov    0x30(%rsp),%rdx
    34801fbf:	48 8b 4c 24 28       	mov    0x28(%rsp),%rcx
    34801fc4:	e8 07 2a 00 00       	callq  348049d0 <StrHeapSort>
    34801fc9:	8b 4c 24 04          	mov    0x4(%rsp),%ecx
    34801fcd:	4c 03 64 24 10       	add    0x10(%rsp),%r12
    34801fd2:	48 03 5c 24 20       	add    0x20(%rsp),%rbx
    34801fd7:	ff c9                	dec    %ecx
    34801fd9:	0f 85 d1 ff ff ff    	jne    34801fb0 <DoStringSortIteration+0x70>
    34801fdf:	48 8b 7c 24 18       	mov    0x18(%rsp),%rdi
    34801fe4:	e8 f7 4f 00 00       	callq  34806fe0 <StopStopwatch>
    34801fe9:	48 89 c3             	mov    %rax,%rbx
    34801fec:	48 8d 74 24 44       	lea    0x44(%rsp),%rsi
    34801ff1:	48 8b 7c 24 08       	mov    0x8(%rsp),%rdi
    34801ff6:	e8 e5 4d 00 00       	callq  34806de0 <FreeMemory>
    34801ffb:	48 89 d8             	mov    %rbx,%rax
    34801ffe:	48 83 c4 48          	add    $0x48,%rsp
    34802002:	5b                   	pop    %rbx
    34802003:	41 5c                	pop    %r12
    34802005:	c3                   	retq   
    34802006:	66 2e 0f 1f 84 00 00 	nopw   %cs:0x0(%rax,%rax,1)
    3480200d:	00 00 00 

0000000034802010 <DoBitops>:
    34802010:	41 54                	push   %r12
    34802012:	53                   	push   %rbx
    34802013:	48 83 ec 78          	sub    $0x78,%rsp
    34802017:	8b 1d 73 64 b1 00    	mov    0xb16473(%rip),%ebx        # 35318490 <global_bitopstruct>
    3480201d:	48 8b 3d 8c 64 b1 00 	mov    0xb1648c(%rip),%rdi        # 353184b0 <global_bitopstruct+0x20>
    34802024:	48 c1 e7 03          	shl    $0x3,%rdi
    34802028:	48 8d 74 24 0c       	lea    0xc(%rsp),%rsi
    3480202d:	e8 8e 4c 00 00       	callq  34806cc0 <AllocateMemory>
    34802032:	49 89 c4             	mov    %rax,%r12
    34802035:	83 fb 00             	cmp    $0x0,%ebx
    34802038:	8b 74 24 0c          	mov    0xc(%rsp),%esi
    3480203c:	4c 89 64 24 20       	mov    %r12,0x20(%rsp)
    34802041:	0f 84 62 00 00 00    	je     348020a9 <DoBitops+0x99>
    34802047:	85 f6                	test   %esi,%esi
    34802049:	0f 84 11 00 00 00    	je     34802060 <DoBitops+0x50>
    3480204f:	bf c2 39 81 34       	mov    $0x348139c2,%edi
    34802054:	e8 b7 4e 00 00       	callq  34806f10 <ReportError>
    34802059:	31 c0                	xor    %eax,%eax
    3480205b:	e8 60 4f 00 00       	callq  34806fc0 <ErrorExit>
    34802060:	48 8b 3d 41 64 b1 00 	mov    0xb16441(%rip),%rdi        # 353184a8 <global_bitopstruct+0x18>
    34802067:	48 c1 e7 04          	shl    $0x4,%rdi
    3480206b:	48 8d 74 24 0c       	lea    0xc(%rsp),%rsi
    34802070:	e8 4b 4c 00 00       	callq  34806cc0 <AllocateMemory>
    34802075:	48 89 44 24 10       	mov    %rax,0x10(%rsp)
    3480207a:	8b 74 24 0c          	mov    0xc(%rsp),%esi
    3480207e:	85 f6                	test   %esi,%esi
    34802080:	0f 84 e0 00 00 00    	je     34802166 <DoBitops+0x156>
    34802086:	bf c2 39 81 34       	mov    $0x348139c2,%edi
    3480208b:	e8 80 4e 00 00       	callq  34806f10 <ReportError>
    34802090:	48 8d 74 24 0c       	lea    0xc(%rsp),%rsi
    34802095:	4c 89 e7             	mov    %r12,%rdi
    34802098:	e8 43 4d 00 00       	callq  34806de0 <FreeMemory>
    3480209d:	31 c0                	xor    %eax,%eax
    3480209f:	e8 1c 4f 00 00       	callq  34806fc0 <ErrorExit>
    348020a4:	e9 bd 00 00 00       	jmpq   34802166 <DoBitops+0x156>
    348020a9:	85 f6                	test   %esi,%esi
    348020ab:	0f 84 11 00 00 00    	je     348020c2 <DoBitops+0xb2>
    348020b1:	bf c2 39 81 34       	mov    $0x348139c2,%edi
    348020b6:	e8 55 4e 00 00       	callq  34806f10 <ReportError>
    348020bb:	31 c0                	xor    %eax,%eax
    348020bd:	e8 fe 4e 00 00       	callq  34806fc0 <ErrorExit>
    348020c2:	bf 1e 00 00 00       	mov    $0x1e,%edi
    348020c7:	4c 8d 64 24 0c       	lea    0xc(%rsp),%r12
    348020cc:	e9 25 00 00 00       	jmpq   348020f6 <DoBitops+0xe6>
    348020d1:	66 66 66 66 66 66 2e 	data16 data16 data16 data16 data16 nopw %cs:0x0(%rax,%rax,1)
    348020d8:	0f 1f 84 00 00 00 00 
    348020df:	00 
    348020e0:	48 89 df             	mov    %rbx,%rdi
    348020e3:	4c 89 e6             	mov    %r12,%rsi
    348020e6:	e8 f5 4c 00 00       	callq  34806de0 <FreeMemory>
    348020eb:	48 8b 3d b6 63 b1 00 	mov    0xb163b6(%rip),%rdi        # 353184a8 <global_bitopstruct+0x18>
    348020f2:	48 83 c7 64          	add    $0x64,%rdi
    348020f6:	48 89 3d ab 63 b1 00 	mov    %rdi,0xb163ab(%rip)        # 353184a8 <global_bitopstruct+0x18>
    348020fd:	48 c1 e7 04          	shl    $0x4,%rdi
    34802101:	4c 89 e6             	mov    %r12,%rsi
    34802104:	e8 b7 4b 00 00       	callq  34806cc0 <AllocateMemory>
    34802109:	48 89 44 24 10       	mov    %rax,0x10(%rsp)
    3480210e:	8b 74 24 0c          	mov    0xc(%rsp),%esi
    34802112:	85 f6                	test   %esi,%esi
    34802114:	48 8b 5c 24 20       	mov    0x20(%rsp),%rbx
    34802119:	0f 84 1c 00 00 00    	je     3480213b <DoBitops+0x12b>
    3480211f:	bf c2 39 81 34       	mov    $0x348139c2,%edi
    34802124:	e8 e7 4d 00 00       	callq  34806f10 <ReportError>
    34802129:	48 89 df             	mov    %rbx,%rdi
    3480212c:	4c 89 e6             	mov    %r12,%rsi
    3480212f:	e8 ac 4c 00 00       	callq  34806de0 <FreeMemory>
    34802134:	31 c0                	xor    %eax,%eax
    34802136:	e8 85 4e 00 00       	callq  34806fc0 <ErrorExit>
    3480213b:	48 8b 15 66 63 b1 00 	mov    0xb16366(%rip),%rdx        # 353184a8 <global_bitopstruct+0x18>
    34802142:	48 89 df             	mov    %rbx,%rdi
    34802145:	48 8b 5c 24 10       	mov    0x10(%rsp),%rbx
    3480214a:	48 89 de             	mov    %rbx,%rsi
    3480214d:	48 8d 4c 24 28       	lea    0x28(%rsp),%rcx
    34802152:	e8 09 01 00 00       	callq  34802260 <DoBitfieldIteration>
    34802157:	48 98                	cltq   
    34802159:	48 3b 05 00 69 b1 00 	cmp    0xb16900(%rip),%rax        # 35318a60 <global_min_ticks>
    34802160:	0f 86 7a ff ff ff    	jbe    348020e0 <DoBitops+0xd0>
    34802166:	66 0f 57 c0          	xorpd  %xmm0,%xmm0
    3480216a:	f2 0f 11 44 24 18    	movsd  %xmm0,0x18(%rsp)
    34802170:	45 31 e4             	xor    %r12d,%r12d
    34802173:	48 8b 5c 24 20       	mov    0x20(%rsp),%rbx
    34802178:	0f 1f 84 00 00 00 00 	nopl   0x0(%rax,%rax,1)
    3480217f:	00 
    34802180:	48 8b 15 21 63 b1 00 	mov    0xb16321(%rip),%rdx        # 353184a8 <global_bitopstruct+0x18>
    34802187:	48 89 df             	mov    %rbx,%rdi
    3480218a:	48 8b 74 24 10       	mov    0x10(%rsp),%rsi
    3480218f:	48 8d 4c 24 28       	lea    0x28(%rsp),%rcx
    34802194:	e8 c7 00 00 00       	callq  34802260 <DoBitfieldIteration>
    34802199:	49 01 c4             	add    %rax,%r12
    3480219c:	f3 0f 7e 44 24 28    	movq   0x28(%rsp),%xmm0
    348021a2:	66 0f 62 05 46 16 01 	punpckldq 0x11646(%rip),%xmm0        # 348137f0 <DoEmFloatIteration.jtable+0x8d0>
    348021a9:	00 
    348021aa:	66 0f 5c 05 4e 16 01 	subpd  0x1164e(%rip),%xmm0        # 34813800 <DoEmFloatIteration.jtable+0x8e0>
    348021b1:	00 
    348021b2:	66 0f 70 c8 4e       	pshufd $0x4e,%xmm0,%xmm1
    348021b7:	66 0f 58 c8          	addpd  %xmm0,%xmm1
    348021bb:	f2 0f 10 44 24 18    	movsd  0x18(%rsp),%xmm0
    348021c1:	f2 0f 58 c1          	addsd  %xmm1,%xmm0
    348021c5:	f2 0f 11 44 24 18    	movsd  %xmm0,0x18(%rsp)
    348021cb:	4c 89 e7             	mov    %r12,%rdi
    348021ce:	e8 1d 4e 00 00       	callq  34806ff0 <TicksToSecs>
    348021d3:	48 3b 05 be 62 b1 00 	cmp    0xb162be(%rip),%rax        # 35318498 <global_bitopstruct+0x8>
    348021da:	0f 82 a0 ff ff ff    	jb     34802180 <DoBitops+0x170>
    348021e0:	48 8d 74 24 0c       	lea    0xc(%rsp),%rsi
    348021e5:	48 89 df             	mov    %rbx,%rdi
    348021e8:	48 89 f3             	mov    %rsi,%rbx
    348021eb:	e8 f0 4b 00 00       	callq  34806de0 <FreeMemory>
    348021f0:	48 8b 7c 24 10       	mov    0x10(%rsp),%rdi
    348021f5:	48 89 de             	mov    %rbx,%rsi
    348021f8:	e8 e3 4b 00 00       	callq  34806de0 <FreeMemory>
    348021fd:	4c 89 e7             	mov    %r12,%rdi
    34802200:	e8 0b 4e 00 00       	callq  34807010 <TicksToFracSecs>
    34802205:	f2 0f 10 4c 24 18    	movsd  0x18(%rsp),%xmm1
    3480220b:	f2 0f 5e c8          	divsd  %xmm0,%xmm1
    3480220f:	f2 0f 11 0d 89 62 b1 	movsd  %xmm1,0xb16289(%rip)        # 353184a0 <global_bitopstruct+0x10>
    34802216:	00 
    34802217:	4c 89 e7             	mov    %r12,%rdi
    3480221a:	e8 f1 4d 00 00       	callq  34807010 <TicksToFracSecs>
    3480221f:	f2 0f 5e 44 24 18    	divsd  0x18(%rsp),%xmm0
    34802225:	48 8d 5c 24 30       	lea    0x30(%rsp),%rbx
    3480222a:	be ac 39 81 34       	mov    $0x348139ac,%esi
    3480222f:	b0 01                	mov    $0x1,%al
    34802231:	48 89 df             	mov    %rbx,%rdi
    34802234:	e8 47 a0 00 00       	callq  3480c280 <sprintf>
    34802239:	48 89 df             	mov    %rbx,%rdi
    3480223c:	e8 7f a6 00 00       	callq  3480c8c0 <puts>
    34802241:	83 3d 48 62 b1 00 00 	cmpl   $0x0,0xb16248(%rip)        # 35318490 <global_bitopstruct>
    34802248:	0f 85 0a 00 00 00    	jne    34802258 <DoBitops+0x248>
    3480224e:	c7 05 38 62 b1 00 01 	movl   $0x1,0xb16238(%rip)        # 35318490 <global_bitopstruct>
    34802255:	00 00 00 
    34802258:	48 83 c4 78          	add    $0x78,%rsp
    3480225c:	5b                   	pop    %rbx
    3480225d:	41 5c                	pop    %r12
    3480225f:	c3                   	retq   

0000000034802260 <DoBitfieldIteration>:
    34802260:	41 54                	push   %r12
    34802262:	53                   	push   %rbx
    34802263:	48 83 ec 28          	sub    $0x28,%rsp
    34802267:	49 89 d4             	mov    %rdx,%r12
    3480226a:	48 89 74 24 20       	mov    %rsi,0x20(%rsp)
    3480226f:	48 89 fb             	mov    %rdi,%rbx
    34802272:	48 89 4c 24 10       	mov    %rcx,0x10(%rsp)
    34802277:	48 c7 01 00 00 00 00 	movq   $0x0,(%rcx)
    3480227e:	bf 0d 00 00 00       	mov    $0xd,%edi
    34802283:	e8 88 ef ff ff       	callq  34801210 <randnum>
    34802288:	48 83 3d 20 62 b1 00 	cmpq   $0x0,0xb16220(%rip)        # 353184b0 <global_bitopstruct+0x20>
    3480228f:	00 
    34802290:	0f 84 2e 00 00 00    	je     348022c4 <DoBitfieldIteration+0x64>
    34802296:	31 c0                	xor    %eax,%eax
    34802298:	48 b9 55 55 55 55 55 	movabs $0x5555555555555555,%rcx
    3480229f:	55 55 55 
    348022a2:	66 66 66 66 66 2e 0f 	data16 data16 data16 data16 nopw %cs:0x0(%rax,%rax,1)
    348022a9:	1f 84 00 00 00 00 00 
    348022b0:	48 89 0c c3          	mov    %rcx,(%rbx,%rax,8)
    348022b4:	48 ff c0             	inc    %rax
    348022b7:	48 3b 05 f2 61 b1 00 	cmp    0xb161f2(%rip),%rax        # 353184b0 <global_bitopstruct+0x20>
    348022be:	0f 82 ec ff ff ff    	jb     348022b0 <DoBitfieldIteration+0x50>
    348022c4:	bf 0d 00 00 00       	mov    $0xd,%edi
    348022c9:	e8 42 ef ff ff       	callq  34801210 <randnum>
    348022ce:	4d 85 e4             	test   %r12,%r12
    348022d1:	0f 8e 3a 01 00 00    	jle    34802411 <DoBitfieldIteration+0x1b1>
    348022d7:	48 89 5c 24 08       	mov    %rbx,0x8(%rsp)
    348022dc:	48 8b 44 24 20       	mov    0x20(%rsp),%rax
    348022e1:	48 8d 58 08          	lea    0x8(%rax),%rbx
    348022e5:	4c 89 64 24 18       	mov    %r12,0x18(%rsp)
    348022ea:	45 31 e4             	xor    %r12d,%r12d
    348022ed:	0f 1f 00             	nopl   (%rax)
    348022f0:	bf fc ff 03 00       	mov    $0x3fffc,%edi
    348022f5:	e8 96 ef ff ff       	callq  34801290 <abs_randwc>
    348022fa:	89 c1                	mov    %eax,%ecx
    348022fc:	48 89 4b f8          	mov    %rcx,-0x8(%rbx)
    34802300:	bf fc ff 03 00       	mov    $0x3fffc,%edi
    34802305:	29 c7                	sub    %eax,%edi
    34802307:	e8 84 ef ff ff       	callq  34801290 <abs_randwc>
    3480230c:	89 c0                	mov    %eax,%eax
    3480230e:	48 89 03             	mov    %rax,(%rbx)
    34802311:	48 8b 4c 24 10       	mov    0x10(%rsp),%rcx
    34802316:	48 01 01             	add    %rax,(%rcx)
    34802319:	49 ff c4             	inc    %r12
    3480231c:	48 83 c3 10          	add    $0x10,%rbx
    34802320:	4c 39 64 24 18       	cmp    %r12,0x18(%rsp)
    34802325:	0f 85 c5 ff ff ff    	jne    348022f0 <DoBitfieldIteration+0x90>
    3480232b:	31 c0                	xor    %eax,%eax
    3480232d:	e8 9e 4c 00 00       	callq  34806fd0 <StartStopwatch>
    34802332:	48 89 c7             	mov    %rax,%rdi
    34802335:	48 83 7c 24 18 00    	cmpq   $0x0,0x18(%rsp)
    3480233b:	0f 8e da 00 00 00    	jle    3480241b <DoBitfieldIteration+0x1bb>
    34802341:	48 89 7c 24 10       	mov    %rdi,0x10(%rsp)
    34802346:	4c 8b 64 24 20       	mov    0x20(%rsp),%r12
    3480234b:	49 83 c4 08          	add    $0x8,%r12
    3480234f:	31 db                	xor    %ebx,%ebx
    34802351:	66 66 66 66 66 66 2e 	data16 data16 data16 data16 data16 nopw %cs:0x0(%rax,%rax,1)
    34802358:	0f 1f 84 00 00 00 00 
    3480235f:	00 
    34802360:	48 89 d8             	mov    %rbx,%rax
    34802363:	48 b9 56 55 55 55 55 	movabs $0x5555555555555556,%rcx
    3480236a:	55 55 55 
    3480236d:	48 f7 e9             	imul   %rcx
    34802370:	48 89 d0             	mov    %rdx,%rax
    34802373:	48 c1 e8 3f          	shr    $0x3f,%rax
    34802377:	48 01 d0             	add    %rdx,%rax
    3480237a:	48 8d 0c 40          	lea    (%rax,%rax,2),%rcx
    3480237e:	48 89 d8             	mov    %rbx,%rax
    34802381:	48 29 c8             	sub    %rcx,%rax
    34802384:	48 83 f8 02          	cmp    $0x2,%rax
    34802388:	0f 84 32 00 00 00    	je     348023c0 <DoBitfieldIteration+0x160>
    3480238e:	48 83 f8 01          	cmp    $0x1,%rax
    34802392:	0f 84 48 00 00 00    	je     348023e0 <DoBitfieldIteration+0x180>
    34802398:	48 85 c0             	test   %rax,%rax
    3480239b:	0f 85 54 00 00 00    	jne    348023f5 <DoBitfieldIteration+0x195>
    348023a1:	49 8b 74 24 f8       	mov    -0x8(%r12),%rsi
    348023a6:	49 8b 14 24          	mov    (%r12),%rdx
    348023aa:	b9 01 00 00 00       	mov    $0x1,%ecx
    348023af:	e9 37 00 00 00       	jmpq   348023eb <DoBitfieldIteration+0x18b>
    348023b4:	66 66 66 2e 0f 1f 84 	data16 data16 nopw %cs:0x0(%rax,%rax,1)
    348023bb:	00 00 00 00 00 
    348023c0:	49 8b 74 24 f8       	mov    -0x8(%r12),%rsi
    348023c5:	49 8b 14 24          	mov    (%r12),%rdx
    348023c9:	48 8b 7c 24 08       	mov    0x8(%rsp),%rdi
    348023ce:	e8 ad 2a 00 00       	callq  34804e80 <FlipBitRun>
    348023d3:	e9 1d 00 00 00       	jmpq   348023f5 <DoBitfieldIteration+0x195>
    348023d8:	0f 1f 84 00 00 00 00 	nopl   0x0(%rax,%rax,1)
    348023df:	00 
    348023e0:	49 8b 74 24 f8       	mov    -0x8(%r12),%rsi
    348023e5:	49 8b 14 24          	mov    (%r12),%rdx
    348023e9:	31 c9                	xor    %ecx,%ecx
    348023eb:	48 8b 7c 24 08       	mov    0x8(%rsp),%rdi
    348023f0:	e8 2b 2a 00 00       	callq  34804e20 <ToggleBitRun>
    348023f5:	48 ff c3             	inc    %rbx
    348023f8:	49 83 c4 10          	add    $0x10,%r12
    348023fc:	48 39 5c 24 18       	cmp    %rbx,0x18(%rsp)
    34802401:	0f 85 59 ff ff ff    	jne    34802360 <DoBitfieldIteration+0x100>
    34802407:	48 8b 7c 24 10       	mov    0x10(%rsp),%rdi
    3480240c:	e9 0a 00 00 00       	jmpq   3480241b <DoBitfieldIteration+0x1bb>
    34802411:	31 c0                	xor    %eax,%eax
    34802413:	e8 b8 4b 00 00       	callq  34806fd0 <StartStopwatch>
    34802418:	48 89 c7             	mov    %rax,%rdi
    3480241b:	48 83 c4 28          	add    $0x28,%rsp
    3480241f:	5b                   	pop    %rbx
    34802420:	41 5c                	pop    %r12
    34802422:	e9 b9 4b 00 00       	jmpq   34806fe0 <StopStopwatch>
    34802427:	66 0f 1f 84 00 00 00 	nopw   0x0(%rax,%rax,1)
    3480242e:	00 00 

0000000034802430 <DoEmFloat>:
    34802430:	41 54                	push   %r12
    34802432:	53                   	push   %rbx
    34802433:	48 81 ec 88 00 00 00 	sub    $0x88,%rsp
    3480243a:	48 8b 05 df 5b b1 00 	mov    0xb15bdf(%rip),%rax        # 35318020 <global_emfloatstruct+0x10>
    34802441:	48 c1 e0 02          	shl    $0x2,%rax
    34802445:	48 8d 3c 40          	lea    (%rax,%rax,2),%rdi
    34802449:	48 8d 74 24 0c       	lea    0xc(%rsp),%rsi
    3480244e:	e8 6d 48 00 00       	callq  34806cc0 <AllocateMemory>
    34802453:	48 89 c3             	mov    %rax,%rbx
    34802456:	8b 74 24 0c          	mov    0xc(%rsp),%esi
    3480245a:	85 f6                	test   %esi,%esi
    3480245c:	0f 84 11 00 00 00    	je     34802473 <DoEmFloat+0x43>
    34802462:	bf d0 39 81 34       	mov    $0x348139d0,%edi
    34802467:	e8 a4 4a 00 00       	callq  34806f10 <ReportError>
    3480246c:	31 c0                	xor    %eax,%eax
    3480246e:	e8 4d 4b 00 00       	callq  34806fc0 <ErrorExit>
    34802473:	48 8b 05 a6 5b b1 00 	mov    0xb15ba6(%rip),%rax        # 35318020 <global_emfloatstruct+0x10>
    3480247a:	48 c1 e0 02          	shl    $0x2,%rax
    3480247e:	48 8d 3c 40          	lea    (%rax,%rax,2),%rdi
    34802482:	48 8d 74 24 0c       	lea    0xc(%rsp),%rsi
    34802487:	e8 34 48 00 00       	callq  34806cc0 <AllocateMemory>
    3480248c:	49 89 c4             	mov    %rax,%r12
    3480248f:	8b 74 24 0c          	mov    0xc(%rsp),%esi
    34802493:	85 f6                	test   %esi,%esi
    34802495:	0f 84 1e 00 00 00    	je     348024b9 <DoEmFloat+0x89>
    3480249b:	bf d0 39 81 34       	mov    $0x348139d0,%edi
    348024a0:	e8 6b 4a 00 00       	callq  34806f10 <ReportError>
    348024a5:	48 8d 74 24 0c       	lea    0xc(%rsp),%rsi
    348024aa:	48 89 df             	mov    %rbx,%rdi
    348024ad:	e8 2e 49 00 00       	callq  34806de0 <FreeMemory>
    348024b2:	31 c0                	xor    %eax,%eax
    348024b4:	e8 07 4b 00 00       	callq  34806fc0 <ErrorExit>
    348024b9:	48 8b 05 60 5b b1 00 	mov    0xb15b60(%rip),%rax        # 35318020 <global_emfloatstruct+0x10>
    348024c0:	48 c1 e0 02          	shl    $0x2,%rax
    348024c4:	48 8d 3c 40          	lea    (%rax,%rax,2),%rdi
    348024c8:	48 8d 74 24 0c       	lea    0xc(%rsp),%rsi
    348024cd:	e8 ee 47 00 00       	callq  34806cc0 <AllocateMemory>
    348024d2:	8b 74 24 0c          	mov    0xc(%rsp),%esi
    348024d6:	85 f6                	test   %esi,%esi
    348024d8:	48 89 5c 24 10       	mov    %rbx,0x10(%rsp)
    348024dd:	48 89 44 24 20       	mov    %rax,0x20(%rsp)
    348024e2:	0f 84 38 00 00 00    	je     34802520 <DoEmFloat+0xf0>
    348024e8:	bf d0 39 81 34       	mov    $0x348139d0,%edi
    348024ed:	e8 1e 4a 00 00       	callq  34806f10 <ReportError>
    348024f2:	48 8d 5c 24 0c       	lea    0xc(%rsp),%rbx
    348024f7:	48 8b 7c 24 10       	mov    0x10(%rsp),%rdi
    348024fc:	48 89 de             	mov    %rbx,%rsi
    348024ff:	e8 dc 48 00 00       	callq  34806de0 <FreeMemory>
    34802504:	4c 89 e7             	mov    %r12,%rdi
    34802507:	48 89 de             	mov    %rbx,%rsi
    3480250a:	48 8b 5c 24 10       	mov    0x10(%rsp),%rbx
    3480250f:	e8 cc 48 00 00       	callq  34806de0 <FreeMemory>
    34802514:	31 c0                	xor    %eax,%eax
    34802516:	e8 a5 4a 00 00       	callq  34806fc0 <ErrorExit>
    3480251b:	48 8b 44 24 20       	mov    0x20(%rsp),%rax
    34802520:	48 8b 0d f9 5a b1 00 	mov    0xb15af9(%rip),%rcx        # 35318020 <global_emfloatstruct+0x10>
    34802527:	48 89 df             	mov    %rbx,%rdi
    3480252a:	4c 89 e6             	mov    %r12,%rsi
    3480252d:	48 89 c2             	mov    %rax,%rdx
    34802530:	e8 eb db ff ff       	callq  34800120 <SetupCPUEmFloatArrays>
    34802535:	83 3d d4 5a b1 00 00 	cmpl   $0x0,0xb15ad4(%rip)        # 35318010 <global_emfloatstruct>
    3480253c:	0f 85 57 00 00 00    	jne    34802599 <DoEmFloat+0x169>
    34802542:	48 c7 05 db 5a b1 00 	movq   $0x0,0xb15adb(%rip)        # 35318028 <global_emfloatstruct+0x18>
    34802549:	00 00 00 00 
    3480254d:	bb 01 00 00 00       	mov    $0x1,%ebx
    34802552:	66 66 66 66 66 2e 0f 	data16 data16 data16 data16 nopw %cs:0x0(%rax,%rax,1)
    34802559:	1f 84 00 00 00 00 00 
    34802560:	48 8b 0d b9 5a b1 00 	mov    0xb15ab9(%rip),%rcx        # 35318020 <global_emfloatstruct+0x10>
    34802567:	48 8b 7c 24 10       	mov    0x10(%rsp),%rdi
    3480256c:	4c 89 e6             	mov    %r12,%rsi
    3480256f:	48 8b 54 24 20       	mov    0x20(%rsp),%rdx
    34802574:	49 89 d8             	mov    %rbx,%r8
    34802577:	e8 94 e0 ff ff       	callq  34800610 <DoEmFloatIteration>
    3480257c:	48 3b 05 dd 64 b1 00 	cmp    0xb164dd(%rip),%rax        # 35318a60 <global_min_ticks>
    34802583:	0f 87 83 01 00 00    	ja     3480270c <DoEmFloat+0x2dc>
    34802589:	48 01 db             	add    %rbx,%rbx
    3480258c:	48 81 fb 20 a1 07 00 	cmp    $0x7a120,%rbx
    34802593:	0f 82 c7 ff ff ff    	jb     34802560 <DoEmFloat+0x130>
    34802599:	48 8b 1d 88 5a b1 00 	mov    0xb15a88(%rip),%rbx        # 35318028 <global_emfloatstruct+0x18>
    348025a0:	48 85 db             	test   %rbx,%rbx
    348025a3:	0f 85 3b 00 00 00    	jne    348025e4 <DoEmFloat+0x1b4>
    348025a9:	bf e7 39 81 34       	mov    $0x348139e7,%edi
    348025ae:	e8 0d a3 00 00       	callq  3480c8c0 <puts>
    348025b3:	48 8d 5c 24 0c       	lea    0xc(%rsp),%rbx
    348025b8:	48 8b 7c 24 10       	mov    0x10(%rsp),%rdi
    348025bd:	48 89 de             	mov    %rbx,%rsi
    348025c0:	e8 1b 48 00 00       	callq  34806de0 <FreeMemory>
    348025c5:	4c 89 e7             	mov    %r12,%rdi
    348025c8:	48 89 de             	mov    %rbx,%rsi
    348025cb:	e8 10 48 00 00       	callq  34806de0 <FreeMemory>
    348025d0:	48 8b 7c 24 20       	mov    0x20(%rsp),%rdi
    348025d5:	48 89 de             	mov    %rbx,%rsi
    348025d8:	e8 03 48 00 00       	callq  34806de0 <FreeMemory>
    348025dd:	31 c0                	xor    %eax,%eax
    348025df:	e8 dc 49 00 00       	callq  34806fc0 <ErrorExit>
    348025e4:	66 0f 57 c0          	xorpd  %xmm0,%xmm0
    348025e8:	f2 0f 11 44 24 18    	movsd  %xmm0,0x18(%rsp)
    348025ee:	31 db                	xor    %ebx,%ebx
    348025f0:	4c 89 64 24 38       	mov    %r12,0x38(%rsp)
    348025f5:	4c 8b 64 24 10       	mov    0x10(%rsp),%r12
    348025fa:	66 0f 1f 44 00 00    	nopw   0x0(%rax,%rax,1)
    34802600:	48 8b 0d 19 5a b1 00 	mov    0xb15a19(%rip),%rcx        # 35318020 <global_emfloatstruct+0x10>
    34802607:	4c 8b 05 1a 5a b1 00 	mov    0xb15a1a(%rip),%r8        # 35318028 <global_emfloatstruct+0x18>
    3480260e:	4c 89 e7             	mov    %r12,%rdi
    34802611:	48 8b 74 24 38       	mov    0x38(%rsp),%rsi
    34802616:	48 8b 54 24 20       	mov    0x20(%rsp),%rdx
    3480261b:	e8 f0 df ff ff       	callq  34800610 <DoEmFloatIteration>
    34802620:	48 01 c3             	add    %rax,%rbx
    34802623:	f2 0f 10 44 24 18    	movsd  0x18(%rsp),%xmm0
    34802629:	f2 0f 58 05 2f 09 01 	addsd  0x1092f(%rip),%xmm0        # 34812f60 <DoEmFloatIteration.jtable+0x40>
    34802630:	00 
    34802631:	f2 0f 11 44 24 18    	movsd  %xmm0,0x18(%rsp)
    34802637:	48 89 df             	mov    %rbx,%rdi
    3480263a:	e8 b1 49 00 00       	callq  34806ff0 <TicksToSecs>
    3480263f:	48 3b 05 d2 59 b1 00 	cmp    0xb159d2(%rip),%rax        # 35318018 <global_emfloatstruct+0x8>
    34802646:	0f 82 b4 ff ff ff    	jb     34802600 <DoEmFloat+0x1d0>
    3480264c:	48 8d 44 24 0c       	lea    0xc(%rsp),%rax
    34802651:	4c 89 e7             	mov    %r12,%rdi
    34802654:	49 89 c4             	mov    %rax,%r12
    34802657:	4c 89 e6             	mov    %r12,%rsi
    3480265a:	e8 81 47 00 00       	callq  34806de0 <FreeMemory>
    3480265f:	48 8b 7c 24 38       	mov    0x38(%rsp),%rdi
    34802664:	4c 89 e6             	mov    %r12,%rsi
    34802667:	e8 74 47 00 00       	callq  34806de0 <FreeMemory>
    3480266c:	48 8b 7c 24 20       	mov    0x20(%rsp),%rdi
    34802671:	4c 89 e6             	mov    %r12,%rsi
    34802674:	e8 67 47 00 00       	callq  34806de0 <FreeMemory>
    34802679:	f3 0f 7e 05 a7 59 b1 	movq   0xb159a7(%rip),%xmm0        # 35318028 <global_emfloatstruct+0x18>
    34802680:	00 
    34802681:	66 0f 62 05 67 11 01 	punpckldq 0x11167(%rip),%xmm0        # 348137f0 <DoEmFloatIteration.jtable+0x8d0>
    34802688:	00 
    34802689:	66 0f 5c 05 6f 11 01 	subpd  0x1116f(%rip),%xmm0        # 34813800 <DoEmFloatIteration.jtable+0x8e0>
    34802690:	00 
    34802691:	66 0f 70 c8 4e       	pshufd $0x4e,%xmm0,%xmm1
    34802696:	66 0f 58 c8          	addpd  %xmm0,%xmm1
    3480269a:	f2 0f 59 4c 24 18    	mulsd  0x18(%rsp),%xmm1
    348026a0:	66 0f 29 4c 24 20    	movapd %xmm1,0x20(%rsp)
    348026a6:	48 89 df             	mov    %rbx,%rdi
    348026a9:	e8 62 49 00 00       	callq  34807010 <TicksToFracSecs>
    348026ae:	66 0f 28 4c 24 20    	movapd 0x20(%rsp),%xmm1
    348026b4:	f2 0f 5e c8          	divsd  %xmm0,%xmm1
    348026b8:	f2 0f 11 0d 70 59 b1 	movsd  %xmm1,0xb15970(%rip)        # 35318030 <global_emfloatstruct+0x20>
    348026bf:	00 
    348026c0:	48 89 df             	mov    %rbx,%rdi
    348026c3:	e8 48 49 00 00       	callq  34807010 <TicksToFracSecs>
    348026c8:	f2 0f 5e 44 24 18    	divsd  0x18(%rsp),%xmm0
    348026ce:	48 8d 5c 24 40       	lea    0x40(%rsp),%rbx
    348026d3:	be ac 39 81 34       	mov    $0x348139ac,%esi
    348026d8:	b0 01                	mov    $0x1,%al
    348026da:	48 89 df             	mov    %rbx,%rdi
    348026dd:	e8 9e 9b 00 00       	callq  3480c280 <sprintf>
    348026e2:	48 89 df             	mov    %rbx,%rdi
    348026e5:	e8 d6 a1 00 00       	callq  3480c8c0 <puts>
    348026ea:	83 3d 1f 59 b1 00 00 	cmpl   $0x0,0xb1591f(%rip)        # 35318010 <global_emfloatstruct>
    348026f1:	0f 85 0a 00 00 00    	jne    34802701 <DoEmFloat+0x2d1>
    348026f7:	c7 05 0f 59 b1 00 01 	movl   $0x1,0xb1590f(%rip)        # 35318010 <global_emfloatstruct>
    348026fe:	00 00 00 
    34802701:	48 81 c4 88 00 00 00 	add    $0x88,%rsp
    34802708:	5b                   	pop    %rbx
    34802709:	41 5c                	pop    %r12
    3480270b:	c3                   	retq   
    3480270c:	48 89 1d 15 59 b1 00 	mov    %rbx,0xb15915(%rip)        # 35318028 <global_emfloatstruct+0x18>
    34802713:	48 85 db             	test   %rbx,%rbx
    34802716:	0f 85 c8 fe ff ff    	jne    348025e4 <DoEmFloat+0x1b4>
    3480271c:	e9 88 fe ff ff       	jmpq   348025a9 <DoEmFloat+0x179>
    34802721:	66 66 66 66 66 66 2e 	data16 data16 data16 data16 data16 nopw %cs:0x0(%rax,%rax,1)
    34802728:	0f 1f 84 00 00 00 00 
    3480272f:	00 

0000000034802730 <DoFourier>:
    34802730:	41 54                	push   %r12
    34802732:	53                   	push   %rbx
    34802733:	48 83 ec 68          	sub    $0x68,%rsp
    34802737:	83 3d ca 63 b1 00 00 	cmpl   $0x0,0xb163ca(%rip)        # 35318b08 <global_fourierstruct>
    3480273e:	0f 84 81 00 00 00    	je     348027c5 <DoFourier+0x95>
    34802744:	48 8b 3d cd 63 b1 00 	mov    0xb163cd(%rip),%rdi        # 35318b18 <global_fourierstruct+0x10>
    3480274b:	48 c1 e7 03          	shl    $0x3,%rdi
    3480274f:	48 8d 74 24 0c       	lea    0xc(%rsp),%rsi
    34802754:	e8 67 45 00 00       	callq  34806cc0 <AllocateMemory>
    34802759:	49 89 c4             	mov    %rax,%r12
    3480275c:	8b 74 24 0c          	mov    0xc(%rsp),%esi
    34802760:	85 f6                	test   %esi,%esi
    34802762:	0f 84 11 00 00 00    	je     34802779 <DoFourier+0x49>
    34802768:	bf 12 3a 81 34       	mov    $0x34813a12,%edi
    3480276d:	e8 9e 47 00 00       	callq  34806f10 <ReportError>
    34802772:	31 c0                	xor    %eax,%eax
    34802774:	e8 47 48 00 00       	callq  34806fc0 <ErrorExit>
    34802779:	48 8b 3d 98 63 b1 00 	mov    0xb16398(%rip),%rdi        # 35318b18 <global_fourierstruct+0x10>
    34802780:	48 c1 e7 03          	shl    $0x3,%rdi
    34802784:	48 8d 74 24 0c       	lea    0xc(%rsp),%rsi
    34802789:	e8 32 45 00 00       	callq  34806cc0 <AllocateMemory>
    3480278e:	48 89 44 24 18       	mov    %rax,0x18(%rsp)
    34802793:	8b 74 24 0c          	mov    0xc(%rsp),%esi
    34802797:	85 f6                	test   %esi,%esi
    34802799:	0f 84 09 01 00 00    	je     348028a8 <DoFourier+0x178>
    3480279f:	bf 12 3a 81 34       	mov    $0x34813a12,%edi
    348027a4:	e8 67 47 00 00       	callq  34806f10 <ReportError>
    348027a9:	48 8d 74 24 0c       	lea    0xc(%rsp),%rsi
    348027ae:	4c 89 e3             	mov    %r12,%rbx
    348027b1:	4c 89 e7             	mov    %r12,%rdi
    348027b4:	e8 27 46 00 00       	callq  34806de0 <FreeMemory>
    348027b9:	31 c0                	xor    %eax,%eax
    348027bb:	e8 00 48 00 00       	callq  34806fc0 <ErrorExit>
    348027c0:	e9 e6 00 00 00       	jmpq   348028ab <DoFourier+0x17b>
    348027c5:	bf 64 00 00 00       	mov    $0x64,%edi
    348027ca:	4c 8d 64 24 0c       	lea    0xc(%rsp),%r12
    348027cf:	e9 2f 00 00 00       	jmpq   34802803 <DoFourier+0xd3>
    348027d4:	66 66 66 2e 0f 1f 84 	data16 data16 nopw %cs:0x0(%rax,%rax,1)
    348027db:	00 00 00 00 00 
    348027e0:	48 8b 7c 24 10       	mov    0x10(%rsp),%rdi
    348027e5:	4c 89 e6             	mov    %r12,%rsi
    348027e8:	e8 f3 45 00 00       	callq  34806de0 <FreeMemory>
    348027ed:	48 89 df             	mov    %rbx,%rdi
    348027f0:	4c 89 e6             	mov    %r12,%rsi
    348027f3:	e8 e8 45 00 00       	callq  34806de0 <FreeMemory>
    348027f8:	48 8b 3d 19 63 b1 00 	mov    0xb16319(%rip),%rdi        # 35318b18 <global_fourierstruct+0x10>
    348027ff:	48 83 c7 32          	add    $0x32,%rdi
    34802803:	48 89 3d 0e 63 b1 00 	mov    %rdi,0xb1630e(%rip)        # 35318b18 <global_fourierstruct+0x10>
    3480280a:	48 c1 e7 03          	shl    $0x3,%rdi
    3480280e:	4c 89 e6             	mov    %r12,%rsi
    34802811:	e8 aa 44 00 00       	callq  34806cc0 <AllocateMemory>
    34802816:	48 89 44 24 10       	mov    %rax,0x10(%rsp)
    3480281b:	8b 74 24 0c          	mov    0xc(%rsp),%esi
    3480281f:	85 f6                	test   %esi,%esi
    34802821:	0f 84 11 00 00 00    	je     34802838 <DoFourier+0x108>
    34802827:	bf 12 3a 81 34       	mov    $0x34813a12,%edi
    3480282c:	e8 df 46 00 00       	callq  34806f10 <ReportError>
    34802831:	31 c0                	xor    %eax,%eax
    34802833:	e8 88 47 00 00       	callq  34806fc0 <ErrorExit>
    34802838:	48 8b 3d d9 62 b1 00 	mov    0xb162d9(%rip),%rdi        # 35318b18 <global_fourierstruct+0x10>
    3480283f:	48 c1 e7 03          	shl    $0x3,%rdi
    34802843:	4c 89 e6             	mov    %r12,%rsi
    34802846:	e8 75 44 00 00       	callq  34806cc0 <AllocateMemory>
    3480284b:	48 89 c3             	mov    %rax,%rbx
    3480284e:	8b 74 24 0c          	mov    0xc(%rsp),%esi
    34802852:	85 f6                	test   %esi,%esi
    34802854:	0f 84 1e 00 00 00    	je     34802878 <DoFourier+0x148>
    3480285a:	bf 12 3a 81 34       	mov    $0x34813a12,%edi
    3480285f:	e8 ac 46 00 00       	callq  34806f10 <ReportError>
    34802864:	48 8b 7c 24 10       	mov    0x10(%rsp),%rdi
    34802869:	4c 89 e6             	mov    %r12,%rsi
    3480286c:	e8 6f 45 00 00       	callq  34806de0 <FreeMemory>
    34802871:	31 c0                	xor    %eax,%eax
    34802873:	e8 48 47 00 00       	callq  34806fc0 <ErrorExit>
    34802878:	48 8b 15 99 62 b1 00 	mov    0xb16299(%rip),%rdx        # 35318b18 <global_fourierstruct+0x10>
    3480287f:	48 8b 7c 24 10       	mov    0x10(%rsp),%rdi
    34802884:	48 89 de             	mov    %rbx,%rsi
    34802887:	e8 24 01 00 00       	callq  348029b0 <DoFPUTransIteration>
    3480288c:	48 3b 05 cd 61 b1 00 	cmp    0xb161cd(%rip),%rax        # 35318a60 <global_min_ticks>
    34802893:	0f 86 47 ff ff ff    	jbe    348027e0 <DoFourier+0xb0>
    34802899:	48 89 5c 24 18       	mov    %rbx,0x18(%rsp)
    3480289e:	48 8b 5c 24 10       	mov    0x10(%rsp),%rbx
    348028a3:	e9 03 00 00 00       	jmpq   348028ab <DoFourier+0x17b>
    348028a8:	4c 89 e3             	mov    %r12,%rbx
    348028ab:	66 0f 57 c0          	xorpd  %xmm0,%xmm0
    348028af:	f2 0f 11 44 24 10    	movsd  %xmm0,0x10(%rsp)
    348028b5:	45 31 e4             	xor    %r12d,%r12d
    348028b8:	0f 1f 84 00 00 00 00 	nopl   0x0(%rax,%rax,1)
    348028bf:	00 
    348028c0:	48 8b 15 51 62 b1 00 	mov    0xb16251(%rip),%rdx        # 35318b18 <global_fourierstruct+0x10>
    348028c7:	48 89 df             	mov    %rbx,%rdi
    348028ca:	48 8b 74 24 18       	mov    0x18(%rsp),%rsi
    348028cf:	e8 dc 00 00 00       	callq  348029b0 <DoFPUTransIteration>
    348028d4:	49 01 c4             	add    %rax,%r12
    348028d7:	f3 0f 7e 05 39 62 b1 	movq   0xb16239(%rip),%xmm0        # 35318b18 <global_fourierstruct+0x10>
    348028de:	00 
    348028df:	66 0f 62 05 09 0f 01 	punpckldq 0x10f09(%rip),%xmm0        # 348137f0 <DoEmFloatIteration.jtable+0x8d0>
    348028e6:	00 
    348028e7:	66 0f 5c 05 11 0f 01 	subpd  0x10f11(%rip),%xmm0        # 34813800 <DoEmFloatIteration.jtable+0x8e0>
    348028ee:	00 
    348028ef:	66 0f 70 c8 4e       	pshufd $0x4e,%xmm0,%xmm1
    348028f4:	66 0f 58 c8          	addpd  %xmm0,%xmm1
    348028f8:	f2 0f 58 c9          	addsd  %xmm1,%xmm1
    348028fc:	f2 0f 58 0d 7c 0e 01 	addsd  0x10e7c(%rip),%xmm1        # 34813780 <DoEmFloatIteration.jtable+0x860>
    34802903:	00 
    34802904:	f2 0f 10 44 24 10    	movsd  0x10(%rsp),%xmm0
    3480290a:	f2 0f 58 c1          	addsd  %xmm1,%xmm0
    3480290e:	f2 0f 11 44 24 10    	movsd  %xmm0,0x10(%rsp)
    34802914:	4c 89 e7             	mov    %r12,%rdi
    34802917:	e8 d4 46 00 00       	callq  34806ff0 <TicksToSecs>
    3480291c:	48 3b 05 ed 61 b1 00 	cmp    0xb161ed(%rip),%rax        # 35318b10 <global_fourierstruct+0x8>
    34802923:	0f 82 97 ff ff ff    	jb     348028c0 <DoFourier+0x190>
    34802929:	48 8d 74 24 0c       	lea    0xc(%rsp),%rsi
    3480292e:	48 89 df             	mov    %rbx,%rdi
    34802931:	48 89 f3             	mov    %rsi,%rbx
    34802934:	e8 a7 44 00 00       	callq  34806de0 <FreeMemory>
    34802939:	48 8b 7c 24 18       	mov    0x18(%rsp),%rdi
    3480293e:	48 89 de             	mov    %rbx,%rsi
    34802941:	e8 9a 44 00 00       	callq  34806de0 <FreeMemory>
    34802946:	4c 89 e7             	mov    %r12,%rdi
    34802949:	e8 c2 46 00 00       	callq  34807010 <TicksToFracSecs>
    3480294e:	f2 0f 10 4c 24 10    	movsd  0x10(%rsp),%xmm1
    34802954:	f2 0f 5e c8          	divsd  %xmm0,%xmm1
    34802958:	f2 0f 11 0d c0 61 b1 	movsd  %xmm1,0xb161c0(%rip)        # 35318b20 <global_fourierstruct+0x18>
    3480295f:	00 
    34802960:	4c 89 e7             	mov    %r12,%rdi
    34802963:	e8 a8 46 00 00       	callq  34807010 <TicksToFracSecs>
    34802968:	f2 0f 5e 44 24 10    	divsd  0x10(%rsp),%xmm0
    3480296e:	48 8d 5c 24 20       	lea    0x20(%rsp),%rbx
    34802973:	be ac 39 81 34       	mov    $0x348139ac,%esi
    34802978:	b0 01                	mov    $0x1,%al
    3480297a:	48 89 df             	mov    %rbx,%rdi
    3480297d:	e8 fe 98 00 00       	callq  3480c280 <sprintf>
    34802982:	48 89 df             	mov    %rbx,%rdi
    34802985:	e8 36 9f 00 00       	callq  3480c8c0 <puts>
    3480298a:	83 3d 77 61 b1 00 00 	cmpl   $0x0,0xb16177(%rip)        # 35318b08 <global_fourierstruct>
    34802991:	0f 85 0a 00 00 00    	jne    348029a1 <DoFourier+0x271>
    34802997:	c7 05 67 61 b1 00 01 	movl   $0x1,0xb16167(%rip)        # 35318b08 <global_fourierstruct>
    3480299e:	00 00 00 
    348029a1:	48 83 c4 68          	add    $0x68,%rsp
    348029a5:	5b                   	pop    %rbx
    348029a6:	41 5c                	pop    %r12
    348029a8:	c3                   	retq   
    348029a9:	0f 1f 80 00 00 00 00 	nopl   0x0(%rax)

00000000348029b0 <DoFPUTransIteration>:
    348029b0:	41 54                	push   %r12
    348029b2:	53                   	push   %rbx
    348029b3:	48 83 ec 28          	sub    $0x28,%rsp
    348029b7:	48 89 14 24          	mov    %rdx,(%rsp)
    348029bb:	49 89 f4             	mov    %rsi,%r12
    348029be:	48 89 fb             	mov    %rdi,%rbx
    348029c1:	31 c0                	xor    %eax,%eax
    348029c3:	e8 08 46 00 00       	callq  34806fd0 <StartStopwatch>
    348029c8:	48 89 44 24 10       	mov    %rax,0x10(%rsp)
    348029cd:	66 0f 57 c0          	xorpd  %xmm0,%xmm0
    348029d1:	31 ff                	xor    %edi,%edi
    348029d3:	e8 d8 24 00 00       	callq  34804eb0 <TrapezoidIntegrate>
    348029d8:	48 8b 04 24          	mov    (%rsp),%rax
    348029dc:	f2 0f 59 05 a4 0d 01 	mulsd  0x10da4(%rip),%xmm0        # 34813788 <DoEmFloatIteration.jtable+0x868>
    348029e3:	00 
    348029e4:	48 89 5c 24 20       	mov    %rbx,0x20(%rsp)
    348029e9:	f2 0f 11 03          	movsd  %xmm0,(%rbx)
    348029ed:	48 83 f8 02          	cmp    $0x2,%rax
    348029f1:	0f 82 84 00 00 00    	jb     34802a7b <DoFPUTransIteration+0xcb>
    348029f7:	bb 01 00 00 00       	mov    $0x1,%ebx
    348029fc:	4c 89 64 24 18       	mov    %r12,0x18(%rsp)
    34802a01:	66 66 66 66 66 66 2e 	data16 data16 data16 data16 data16 nopw %cs:0x0(%rax,%rax,1)
    34802a08:	0f 1f 84 00 00 00 00 
    34802a0f:	00 
    34802a10:	66 48 0f 6e cb       	movq   %rbx,%xmm1
    34802a15:	66 0f 62 0d d3 0d 01 	punpckldq 0x10dd3(%rip),%xmm1        # 348137f0 <DoEmFloatIteration.jtable+0x8d0>
    34802a1c:	00 
    34802a1d:	66 0f 5c 0d db 0d 01 	subpd  0x10ddb(%rip),%xmm1        # 34813800 <DoEmFloatIteration.jtable+0x8e0>
    34802a24:	00 
    34802a25:	66 0f 70 c1 4e       	pshufd $0x4e,%xmm1,%xmm0
    34802a2a:	66 0f 58 c1          	addpd  %xmm1,%xmm0
    34802a2e:	f2 0f 59 05 5a 0d 01 	mulsd  0x10d5a(%rip),%xmm0        # 34813790 <DoEmFloatIteration.jtable+0x870>
    34802a35:	00 
    34802a36:	66 0f 29 04 24       	movapd %xmm0,(%rsp)
    34802a3b:	bf 01 00 00 00       	mov    $0x1,%edi
    34802a40:	49 89 c4             	mov    %rax,%r12
    34802a43:	e8 68 24 00 00       	callq  34804eb0 <TrapezoidIntegrate>
    34802a48:	48 8b 44 24 20       	mov    0x20(%rsp),%rax
    34802a4d:	f2 0f 11 04 d8       	movsd  %xmm0,(%rax,%rbx,8)
    34802a52:	bf 02 00 00 00       	mov    $0x2,%edi
    34802a57:	66 0f 28 04 24       	movapd (%rsp),%xmm0
    34802a5c:	e8 4f 24 00 00       	callq  34804eb0 <TrapezoidIntegrate>
    34802a61:	4c 89 e0             	mov    %r12,%rax
    34802a64:	4c 8b 64 24 18       	mov    0x18(%rsp),%r12
    34802a69:	f2 41 0f 11 04 dc    	movsd  %xmm0,(%r12,%rbx,8)
    34802a6f:	48 ff c3             	inc    %rbx
    34802a72:	48 39 d8             	cmp    %rbx,%rax
    34802a75:	0f 85 95 ff ff ff    	jne    34802a10 <DoFPUTransIteration+0x60>
    34802a7b:	48 8b 7c 24 10       	mov    0x10(%rsp),%rdi
    34802a80:	48 83 c4 28          	add    $0x28,%rsp
    34802a84:	5b                   	pop    %rbx
    34802a85:	41 5c                	pop    %r12
    34802a87:	e9 54 45 00 00       	jmpq   34806fe0 <StopStopwatch>
    34802a8c:	0f 1f 40 00          	nopl   0x0(%rax)

0000000034802a90 <DoAssign>:
    34802a90:	41 54                	push   %r12
    34802a92:	53                   	push   %rbx
    34802a93:	48 83 ec 68          	sub    $0x68,%rsp
    34802a97:	83 3d 02 60 b1 00 00 	cmpl   $0x0,0xb16002(%rip)        # 35318aa0 <global_assignstruct>
    34802a9e:	0f 84 47 00 00 00    	je     34802aeb <DoAssign+0x5b>
    34802aa4:	48 69 3d 01 60 b1 00 	imul   $0x13ec8,0xb16001(%rip),%rdi        # 35318ab0 <global_assignstruct+0x10>
    34802aab:	c8 3e 01 00 
    34802aaf:	48 8d 74 24 04       	lea    0x4(%rsp),%rsi
    34802ab4:	e8 07 42 00 00       	callq  34806cc0 <AllocateMemory>
    34802ab9:	49 89 c4             	mov    %rax,%r12
    34802abc:	8b 74 24 04          	mov    0x4(%rsp),%esi
    34802ac0:	85 f6                	test   %esi,%esi
    34802ac2:	0f 84 aa 00 00 00    	je     34802b72 <DoAssign+0xe2>
    34802ac8:	bf 25 3a 81 34       	mov    $0x34813a25,%edi
    34802acd:	e8 3e 44 00 00       	callq  34806f10 <ReportError>
    34802ad2:	48 8d 74 24 04       	lea    0x4(%rsp),%rsi
    34802ad7:	4c 89 e7             	mov    %r12,%rdi
    34802ada:	e8 01 43 00 00       	callq  34806de0 <FreeMemory>
    34802adf:	31 c0                	xor    %eax,%eax
    34802ae1:	e8 da 44 00 00       	callq  34806fc0 <ErrorExit>
    34802ae6:	e9 87 00 00 00       	jmpq   34802b72 <DoAssign+0xe2>
    34802aeb:	b8 01 00 00 00       	mov    $0x1,%eax
    34802af0:	48 8d 5c 24 04       	lea    0x4(%rsp),%rbx
    34802af5:	e9 1b 00 00 00       	jmpq   34802b15 <DoAssign+0x85>
    34802afa:	66 0f 1f 44 00 00    	nopw   0x0(%rax,%rax,1)
    34802b00:	4c 89 e7             	mov    %r12,%rdi
    34802b03:	48 89 de             	mov    %rbx,%rsi
    34802b06:	e8 d5 42 00 00       	callq  34806de0 <FreeMemory>
    34802b0b:	48 8b 05 9e 5f b1 00 	mov    0xb15f9e(%rip),%rax        # 35318ab0 <global_assignstruct+0x10>
    34802b12:	48 ff c0             	inc    %rax
    34802b15:	48 89 05 94 5f b1 00 	mov    %rax,0xb15f94(%rip)        # 35318ab0 <global_assignstruct+0x10>
    34802b1c:	48 69 f8 c8 3e 01 00 	imul   $0x13ec8,%rax,%rdi
    34802b23:	48 89 de             	mov    %rbx,%rsi
    34802b26:	e8 95 41 00 00       	callq  34806cc0 <AllocateMemory>
    34802b2b:	49 89 c4             	mov    %rax,%r12
    34802b2e:	8b 74 24 04          	mov    0x4(%rsp),%esi
    34802b32:	85 f6                	test   %esi,%esi
    34802b34:	0f 84 1c 00 00 00    	je     34802b56 <DoAssign+0xc6>
    34802b3a:	bf 25 3a 81 34       	mov    $0x34813a25,%edi
    34802b3f:	e8 cc 43 00 00       	callq  34806f10 <ReportError>
    34802b44:	4c 89 e7             	mov    %r12,%rdi
    34802b47:	48 89 de             	mov    %rbx,%rsi
    34802b4a:	e8 91 42 00 00       	callq  34806de0 <FreeMemory>
    34802b4f:	31 c0                	xor    %eax,%eax
    34802b51:	e8 6a 44 00 00       	callq  34806fc0 <ErrorExit>
    34802b56:	48 8b 35 53 5f b1 00 	mov    0xb15f53(%rip),%rsi        # 35318ab0 <global_assignstruct+0x10>
    34802b5d:	4c 89 e7             	mov    %r12,%rdi
    34802b60:	e8 fb 00 00 00       	callq  34802c60 <DoAssignIteration>
    34802b65:	48 3b 05 f4 5e b1 00 	cmp    0xb15ef4(%rip),%rax        # 35318a60 <global_min_ticks>
    34802b6c:	0f 86 8e ff ff ff    	jbe    34802b00 <DoAssign+0x70>
    34802b72:	66 0f 57 c0          	xorpd  %xmm0,%xmm0
    34802b76:	f2 0f 11 44 24 08    	movsd  %xmm0,0x8(%rsp)
    34802b7c:	31 db                	xor    %ebx,%ebx
    34802b7e:	66 90                	xchg   %ax,%ax
    34802b80:	48 8b 35 29 5f b1 00 	mov    0xb15f29(%rip),%rsi        # 35318ab0 <global_assignstruct+0x10>
    34802b87:	4c 89 e7             	mov    %r12,%rdi
    34802b8a:	e8 d1 00 00 00       	callq  34802c60 <DoAssignIteration>
    34802b8f:	48 01 c3             	add    %rax,%rbx
    34802b92:	f2 0f 10 44 24 08    	movsd  0x8(%rsp),%xmm0
    34802b98:	f2 0f 58 05 c0 03 01 	addsd  0x103c0(%rip),%xmm0        # 34812f60 <DoEmFloatIteration.jtable+0x40>
    34802b9f:	00 
    34802ba0:	f2 0f 11 44 24 08    	movsd  %xmm0,0x8(%rsp)
    34802ba6:	48 89 df             	mov    %rbx,%rdi
    34802ba9:	e8 42 44 00 00       	callq  34806ff0 <TicksToSecs>
    34802bae:	48 3b 05 f3 5e b1 00 	cmp    0xb15ef3(%rip),%rax        # 35318aa8 <global_assignstruct+0x8>
    34802bb5:	0f 82 c5 ff ff ff    	jb     34802b80 <DoAssign+0xf0>
    34802bbb:	48 8d 74 24 04       	lea    0x4(%rsp),%rsi
    34802bc0:	4c 89 e7             	mov    %r12,%rdi
    34802bc3:	e8 18 42 00 00       	callq  34806de0 <FreeMemory>
    34802bc8:	f3 0f 7e 05 e0 5e b1 	movq   0xb15ee0(%rip),%xmm0        # 35318ab0 <global_assignstruct+0x10>
    34802bcf:	00 
    34802bd0:	66 0f 62 05 18 0c 01 	punpckldq 0x10c18(%rip),%xmm0        # 348137f0 <DoEmFloatIteration.jtable+0x8d0>
    34802bd7:	00 
    34802bd8:	66 0f 5c 05 20 0c 01 	subpd  0x10c20(%rip),%xmm0        # 34813800 <DoEmFloatIteration.jtable+0x8e0>
    34802bdf:	00 
    34802be0:	66 0f 70 c8 4e       	pshufd $0x4e,%xmm0,%xmm1
    34802be5:	66 0f 58 c8          	addpd  %xmm0,%xmm1
    34802be9:	f2 0f 59 4c 24 08    	mulsd  0x8(%rsp),%xmm1
    34802bef:	66 0f 29 4c 24 10    	movapd %xmm1,0x10(%rsp)
    34802bf5:	48 89 df             	mov    %rbx,%rdi
    34802bf8:	e8 13 44 00 00       	callq  34807010 <TicksToFracSecs>
    34802bfd:	66 0f 28 4c 24 10    	movapd 0x10(%rsp),%xmm1
    34802c03:	f2 0f 5e c8          	divsd  %xmm0,%xmm1
    34802c07:	f2 0f 11 0d a9 5e b1 	movsd  %xmm1,0xb15ea9(%rip)        # 35318ab8 <global_assignstruct+0x18>
    34802c0e:	00 
    34802c0f:	48 89 df             	mov    %rbx,%rdi
    34802c12:	e8 f9 43 00 00       	callq  34807010 <TicksToFracSecs>
    34802c17:	f2 0f 5e 44 24 08    	divsd  0x8(%rsp),%xmm0
    34802c1d:	48 8d 5c 24 20       	lea    0x20(%rsp),%rbx
    34802c22:	be ac 39 81 34       	mov    $0x348139ac,%esi
    34802c27:	b0 01                	mov    $0x1,%al
    34802c29:	48 89 df             	mov    %rbx,%rdi
    34802c2c:	e8 4f 96 00 00       	callq  3480c280 <sprintf>
    34802c31:	48 89 df             	mov    %rbx,%rdi
    34802c34:	e8 87 9c 00 00       	callq  3480c8c0 <puts>
    34802c39:	83 3d 60 5e b1 00 00 	cmpl   $0x0,0xb15e60(%rip)        # 35318aa0 <global_assignstruct>
    34802c40:	0f 85 0a 00 00 00    	jne    34802c50 <DoAssign+0x1c0>
    34802c46:	c7 05 50 5e b1 00 01 	movl   $0x1,0xb15e50(%rip)        # 35318aa0 <global_assignstruct>
    34802c4d:	00 00 00 
    34802c50:	48 83 c4 68          	add    $0x68,%rsp
    34802c54:	5b                   	pop    %rbx
    34802c55:	41 5c                	pop    %r12
    34802c57:	c3                   	retq   
    34802c58:	0f 1f 84 00 00 00 00 	nopl   0x0(%rax,%rax,1)
    34802c5f:	00 

0000000034802c60 <DoAssignIteration>:
    34802c60:	41 54                	push   %r12
    34802c62:	53                   	push   %rbx
    34802c63:	50                   	push   %rax
    34802c64:	49 89 f4             	mov    %rsi,%r12
    34802c67:	48 89 fb             	mov    %rdi,%rbx
    34802c6a:	e8 b1 23 00 00       	callq  34805020 <LoadAssignArrayWithRand>
    34802c6f:	31 c0                	xor    %eax,%eax
    34802c71:	e8 5a 43 00 00       	callq  34806fd0 <StartStopwatch>
    34802c76:	48 89 04 24          	mov    %rax,(%rsp)
    34802c7a:	4d 85 e4             	test   %r12,%r12
    34802c7d:	0f 84 25 00 00 00    	je     34802ca8 <DoAssignIteration+0x48>
    34802c83:	66 66 66 66 2e 0f 1f 	data16 data16 data16 nopw %cs:0x0(%rax,%rax,1)
    34802c8a:	84 00 00 00 00 00 
    34802c90:	48 89 df             	mov    %rbx,%rdi
    34802c93:	e8 e8 23 00 00       	callq  34805080 <Assignment>
    34802c98:	48 81 c3 c8 3e 01 00 	add    $0x13ec8,%rbx
    34802c9f:	49 ff cc             	dec    %r12
    34802ca2:	0f 85 e8 ff ff ff    	jne    34802c90 <DoAssignIteration+0x30>
    34802ca8:	48 8b 3c 24          	mov    (%rsp),%rdi
    34802cac:	48 83 c4 08          	add    $0x8,%rsp
    34802cb0:	5b                   	pop    %rbx
    34802cb1:	41 5c                	pop    %r12
    34802cb3:	e9 28 43 00 00       	jmpq   34806fe0 <StopStopwatch>
    34802cb8:	0f 1f 84 00 00 00 00 	nopl   0x0(%rax,%rax,1)
    34802cbf:	00 

0000000034802cc0 <DoIDEA>:
    34802cc0:	41 54                	push   %r12
    34802cc2:	53                   	push   %rbx
    34802cc3:	48 81 ec 68 01 00 00 	sub    $0x168,%rsp
    34802cca:	bf 03 00 00 00       	mov    $0x3,%edi
    34802ccf:	e8 3c e5 ff ff       	callq  34801210 <randnum>
    34802cd4:	31 db                	xor    %ebx,%ebx
    34802cd6:	66 2e 0f 1f 84 00 00 	nopw   %cs:0x0(%rax,%rax,1)
    34802cdd:	00 00 00 
    34802ce0:	bf 60 ea 00 00       	mov    $0xea60,%edi
    34802ce5:	e8 a6 e5 ff ff       	callq  34801290 <abs_randwc>
    34802cea:	66 89 44 5c 30       	mov    %ax,0x30(%rsp,%rbx,2)
    34802cef:	48 ff c3             	inc    %rbx
    34802cf2:	48 83 fb 08          	cmp    $0x8,%rbx
    34802cf6:	0f 85 e4 ff ff ff    	jne    34802ce0 <DoIDEA+0x20>
    34802cfc:	66 0f 57 c0          	xorpd  %xmm0,%xmm0
    34802d00:	66 0f 29 84 24 90 00 	movapd %xmm0,0x90(%rsp)
    34802d07:	00 00 
    34802d09:	66 0f 29 84 24 80 00 	movapd %xmm0,0x80(%rsp)
    34802d10:	00 00 
    34802d12:	66 0f 29 44 24 70    	movapd %xmm0,0x70(%rsp)
    34802d18:	66 0f 29 44 24 60    	movapd %xmm0,0x60(%rsp)
    34802d1e:	66 0f 29 44 24 50    	movapd %xmm0,0x50(%rsp)
    34802d24:	66 0f 29 44 24 40    	movapd %xmm0,0x40(%rsp)
    34802d2a:	48 c7 84 24 a0 00 00 	movq   $0x0,0xa0(%rsp)
    34802d31:	00 00 00 00 00 
    34802d36:	48 8d 7c 24 30       	lea    0x30(%rsp),%rdi
    34802d3b:	48 8d 5c 24 40       	lea    0x40(%rsp),%rbx
    34802d40:	48 89 de             	mov    %rbx,%rsi
    34802d43:	e8 f8 02 00 00       	callq  34803040 <en_key_idea>
    34802d48:	48 8d b4 24 b0 00 00 	lea    0xb0(%rsp),%rsi
    34802d4f:	00 
    34802d50:	48 89 df             	mov    %rbx,%rdi
    34802d53:	e8 58 03 00 00       	callq  348030b0 <de_key_idea>
    34802d58:	48 8b 3d 91 5d b1 00 	mov    0xb15d91(%rip),%rdi        # 35318af0 <global_ideastruct+0x10>
    34802d5f:	48 8d 74 24 0c       	lea    0xc(%rsp),%rsi
    34802d64:	e8 57 3f 00 00       	callq  34806cc0 <AllocateMemory>
    34802d69:	48 89 c3             	mov    %rax,%rbx
    34802d6c:	8b 74 24 0c          	mov    0xc(%rsp),%esi
    34802d70:	85 f6                	test   %esi,%esi
    34802d72:	0f 84 11 00 00 00    	je     34802d89 <DoIDEA+0xc9>
    34802d78:	bf 34 3a 81 34       	mov    $0x34813a34,%edi
    34802d7d:	e8 8e 41 00 00       	callq  34806f10 <ReportError>
    34802d82:	31 c0                	xor    %eax,%eax
    34802d84:	e8 37 42 00 00       	callq  34806fc0 <ErrorExit>
    34802d89:	48 8b 3d 60 5d b1 00 	mov    0xb15d60(%rip),%rdi        # 35318af0 <global_ideastruct+0x10>
    34802d90:	48 8d 74 24 0c       	lea    0xc(%rsp),%rsi
    34802d95:	e8 26 3f 00 00       	callq  34806cc0 <AllocateMemory>
    34802d9a:	49 89 c4             	mov    %rax,%r12
    34802d9d:	8b 74 24 0c          	mov    0xc(%rsp),%esi
    34802da1:	85 f6                	test   %esi,%esi
    34802da3:	0f 84 1e 00 00 00    	je     34802dc7 <DoIDEA+0x107>
    34802da9:	bf 34 3a 81 34       	mov    $0x34813a34,%edi
    34802dae:	e8 5d 41 00 00       	callq  34806f10 <ReportError>
    34802db3:	48 8d 74 24 0c       	lea    0xc(%rsp),%rsi
    34802db8:	48 89 df             	mov    %rbx,%rdi
    34802dbb:	e8 20 40 00 00       	callq  34806de0 <FreeMemory>
    34802dc0:	31 c0                	xor    %eax,%eax
    34802dc2:	e8 f9 41 00 00       	callq  34806fc0 <ErrorExit>
    34802dc7:	48 89 5c 24 10       	mov    %rbx,0x10(%rsp)
    34802dcc:	48 8b 3d 1d 5d b1 00 	mov    0xb15d1d(%rip),%rdi        # 35318af0 <global_ideastruct+0x10>
    34802dd3:	48 8d 74 24 0c       	lea    0xc(%rsp),%rsi
    34802dd8:	e8 e3 3e 00 00       	callq  34806cc0 <AllocateMemory>
    34802ddd:	48 89 44 24 18       	mov    %rax,0x18(%rsp)
    34802de2:	8b 74 24 0c          	mov    0xc(%rsp),%esi
    34802de6:	85 f6                	test   %esi,%esi
    34802de8:	0f 84 2e 00 00 00    	je     34802e1c <DoIDEA+0x15c>
    34802dee:	bf 34 3a 81 34       	mov    $0x34813a34,%edi
    34802df3:	e8 18 41 00 00       	callq  34806f10 <ReportError>
    34802df8:	48 8d 5c 24 0c       	lea    0xc(%rsp),%rbx
    34802dfd:	48 8b 7c 24 10       	mov    0x10(%rsp),%rdi
    34802e02:	48 89 de             	mov    %rbx,%rsi
    34802e05:	e8 d6 3f 00 00       	callq  34806de0 <FreeMemory>
    34802e0a:	4c 89 e7             	mov    %r12,%rdi
    34802e0d:	48 89 de             	mov    %rbx,%rsi
    34802e10:	e8 cb 3f 00 00       	callq  34806de0 <FreeMemory>
    34802e15:	31 c0                	xor    %eax,%eax
    34802e17:	e8 a4 41 00 00       	callq  34806fc0 <ErrorExit>
    34802e1c:	4c 89 64 24 28       	mov    %r12,0x28(%rsp)
    34802e21:	48 83 3d c7 5c b1 00 	cmpq   $0x0,0xb15cc7(%rip)        # 35318af0 <global_ideastruct+0x10>
    34802e28:	00 
    34802e29:	0f 84 37 00 00 00    	je     34802e66 <DoIDEA+0x1a6>
    34802e2f:	31 db                	xor    %ebx,%ebx
    34802e31:	4c 8b 64 24 10       	mov    0x10(%rsp),%r12
    34802e36:	66 2e 0f 1f 84 00 00 	nopw   %cs:0x0(%rax,%rax,1)
    34802e3d:	00 00 00 
    34802e40:	bf ff 00 00 00       	mov    $0xff,%edi
    34802e45:	e8 46 e4 ff ff       	callq  34801290 <abs_randwc>
    34802e4a:	41 88 04 1c          	mov    %al,(%r12,%rbx,1)
    34802e4e:	48 ff c3             	inc    %rbx
    34802e51:	48 8b 0d 98 5c b1 00 	mov    0xb15c98(%rip),%rcx        # 35318af0 <global_ideastruct+0x10>
    34802e58:	48 39 d9             	cmp    %rbx,%rcx
    34802e5b:	0f 87 df ff ff ff    	ja     34802e40 <DoIDEA+0x180>
    34802e61:	e9 02 00 00 00       	jmpq   34802e68 <DoIDEA+0x1a8>
    34802e66:	31 c9                	xor    %ecx,%ecx
    34802e68:	83 3d 71 5c b1 00 00 	cmpl   $0x0,0xb15c71(%rip)        # 35318ae0 <global_ideastruct>
    34802e6f:	48 8b 5c 24 28       	mov    0x28(%rsp),%rbx
    34802e74:	0f 85 9a 00 00 00    	jne    34802f14 <DoIDEA+0x254>
    34802e7a:	48 c7 05 73 5c b1 00 	movq   $0x64,0xb15c73(%rip)        # 35318af8 <global_ideastruct+0x18>
    34802e81:	64 00 00 00 
    34802e85:	48 8d 84 24 b0 00 00 	lea    0xb0(%rsp),%rax
    34802e8c:	00 
    34802e8d:	48 89 04 24          	mov    %rax,(%rsp)
    34802e91:	4c 8d 4c 24 40       	lea    0x40(%rsp),%r9
    34802e96:	41 b8 64 00 00 00    	mov    $0x64,%r8d
    34802e9c:	48 8b 7c 24 10       	mov    0x10(%rsp),%rdi
    34802ea1:	48 89 de             	mov    %rbx,%rsi
    34802ea4:	48 8b 54 24 18       	mov    0x18(%rsp),%rdx
    34802ea9:	e8 c2 03 00 00       	callq  34803270 <DoIDEAIteration>
    34802eae:	48 3b 05 ab 5b b1 00 	cmp    0xb15bab(%rip),%rax        # 35318a60 <global_min_ticks>
    34802eb5:	0f 87 59 00 00 00    	ja     34802f14 <DoIDEA+0x254>
    34802ebb:	4c 8d 64 24 40       	lea    0x40(%rsp),%r12
    34802ec0:	4c 8b 05 31 5c b1 00 	mov    0xb15c31(%rip),%r8        # 35318af8 <global_ideastruct+0x18>
    34802ec7:	49 83 c0 0a          	add    $0xa,%r8
    34802ecb:	4c 89 05 26 5c b1 00 	mov    %r8,0xb15c26(%rip)        # 35318af8 <global_ideastruct+0x18>
    34802ed2:	49 81 f8 1f a1 07 00 	cmp    $0x7a11f,%r8
    34802ed9:	0f 87 35 00 00 00    	ja     34802f14 <DoIDEA+0x254>
    34802edf:	48 8b 0d 0a 5c b1 00 	mov    0xb15c0a(%rip),%rcx        # 35318af0 <global_ideastruct+0x10>
    34802ee6:	48 8d 84 24 b0 00 00 	lea    0xb0(%rsp),%rax
    34802eed:	00 
    34802eee:	48 89 04 24          	mov    %rax,(%rsp)
    34802ef2:	48 8b 7c 24 10       	mov    0x10(%rsp),%rdi
    34802ef7:	48 89 de             	mov    %rbx,%rsi
    34802efa:	48 8b 54 24 18       	mov    0x18(%rsp),%rdx
    34802eff:	4d 89 e1             	mov    %r12,%r9
    34802f02:	e8 69 03 00 00       	callq  34803270 <DoIDEAIteration>
    34802f07:	48 3b 05 52 5b b1 00 	cmp    0xb15b52(%rip),%rax        # 35318a60 <global_min_ticks>
    34802f0e:	0f 86 ac ff ff ff    	jbe    34802ec0 <DoIDEA+0x200>
    34802f14:	66 0f 57 c0          	xorpd  %xmm0,%xmm0
    34802f18:	f2 0f 11 44 24 20    	movsd  %xmm0,0x20(%rsp)
    34802f1e:	45 31 e4             	xor    %r12d,%r12d
    34802f21:	48 8b 5c 24 10       	mov    0x10(%rsp),%rbx
    34802f26:	66 2e 0f 1f 84 00 00 	nopw   %cs:0x0(%rax,%rax,1)
    34802f2d:	00 00 00 
    34802f30:	48 8b 0d b9 5b b1 00 	mov    0xb15bb9(%rip),%rcx        # 35318af0 <global_ideastruct+0x10>
    34802f37:	4c 8b 05 ba 5b b1 00 	mov    0xb15bba(%rip),%r8        # 35318af8 <global_ideastruct+0x18>
    34802f3e:	48 8d 84 24 b0 00 00 	lea    0xb0(%rsp),%rax
    34802f45:	00 
    34802f46:	48 89 04 24          	mov    %rax,(%rsp)
    34802f4a:	48 89 df             	mov    %rbx,%rdi
    34802f4d:	48 8b 74 24 28       	mov    0x28(%rsp),%rsi
    34802f52:	48 8b 54 24 18       	mov    0x18(%rsp),%rdx
    34802f57:	4c 8d 4c 24 40       	lea    0x40(%rsp),%r9
    34802f5c:	e8 0f 03 00 00       	callq  34803270 <DoIDEAIteration>
    34802f61:	49 01 c4             	add    %rax,%r12
    34802f64:	f3 0f 7e 05 8c 5b b1 	movq   0xb15b8c(%rip),%xmm0        # 35318af8 <global_ideastruct+0x18>
    34802f6b:	00 
    34802f6c:	66 0f 62 05 7c 08 01 	punpckldq 0x1087c(%rip),%xmm0        # 348137f0 <DoEmFloatIteration.jtable+0x8d0>
    34802f73:	00 
    34802f74:	66 0f 5c 05 84 08 01 	subpd  0x10884(%rip),%xmm0        # 34813800 <DoEmFloatIteration.jtable+0x8e0>
    34802f7b:	00 
    34802f7c:	66 0f 70 c8 4e       	pshufd $0x4e,%xmm0,%xmm1
    34802f81:	66 0f 58 c8          	addpd  %xmm0,%xmm1
    34802f85:	f2 0f 10 44 24 20    	movsd  0x20(%rsp),%xmm0
    34802f8b:	f2 0f 58 c1          	addsd  %xmm1,%xmm0
    34802f8f:	f2 0f 11 44 24 20    	movsd  %xmm0,0x20(%rsp)
    34802f95:	4c 89 e7             	mov    %r12,%rdi
    34802f98:	e8 53 40 00 00       	callq  34806ff0 <TicksToSecs>
    34802f9d:	48 3b 05 44 5b b1 00 	cmp    0xb15b44(%rip),%rax        # 35318ae8 <global_ideastruct+0x8>
    34802fa4:	0f 82 86 ff ff ff    	jb     34802f30 <DoIDEA+0x270>
    34802faa:	48 8d 44 24 0c       	lea    0xc(%rsp),%rax
    34802faf:	48 89 df             	mov    %rbx,%rdi
    34802fb2:	48 89 c3             	mov    %rax,%rbx
    34802fb5:	48 89 de             	mov    %rbx,%rsi
    34802fb8:	e8 23 3e 00 00       	callq  34806de0 <FreeMemory>
    34802fbd:	48 8b 7c 24 28       	mov    0x28(%rsp),%rdi
    34802fc2:	48 89 de             	mov    %rbx,%rsi
    34802fc5:	e8 16 3e 00 00       	callq  34806de0 <FreeMemory>
    34802fca:	48 8b 7c 24 18       	mov    0x18(%rsp),%rdi
    34802fcf:	48 89 de             	mov    %rbx,%rsi
    34802fd2:	e8 09 3e 00 00       	callq  34806de0 <FreeMemory>
    34802fd7:	4c 89 e7             	mov    %r12,%rdi
    34802fda:	e8 31 40 00 00       	callq  34807010 <TicksToFracSecs>
    34802fdf:	f2 0f 10 4c 24 20    	movsd  0x20(%rsp),%xmm1
    34802fe5:	f2 0f 5e c8          	divsd  %xmm0,%xmm1
    34802fe9:	f2 0f 11 0d 0f 5b b1 	movsd  %xmm1,0xb15b0f(%rip)        # 35318b00 <global_ideastruct+0x20>
    34802ff0:	00 
    34802ff1:	4c 89 e7             	mov    %r12,%rdi
    34802ff4:	e8 17 40 00 00       	callq  34807010 <TicksToFracSecs>
    34802ff9:	f2 0f 5e 44 24 20    	divsd  0x20(%rsp),%xmm0
    34802fff:	48 8d 9c 24 20 01 00 	lea    0x120(%rsp),%rbx
    34803006:	00 
    34803007:	be ac 39 81 34       	mov    $0x348139ac,%esi
    3480300c:	b0 01                	mov    $0x1,%al
    3480300e:	48 89 df             	mov    %rbx,%rdi
    34803011:	e8 6a 92 00 00       	callq  3480c280 <sprintf>
    34803016:	48 89 df             	mov    %rbx,%rdi
    34803019:	e8 a2 98 00 00       	callq  3480c8c0 <puts>
    3480301e:	83 3d bb 5a b1 00 00 	cmpl   $0x0,0xb15abb(%rip)        # 35318ae0 <global_ideastruct>
    34803025:	0f 85 0a 00 00 00    	jne    34803035 <DoIDEA+0x375>
    3480302b:	c7 05 ab 5a b1 00 01 	movl   $0x1,0xb15aab(%rip)        # 35318ae0 <global_ideastruct>
    34803032:	00 00 00 
    34803035:	48 81 c4 68 01 00 00 	add    $0x168,%rsp
    3480303c:	5b                   	pop    %rbx
    3480303d:	41 5c                	pop    %r12
    3480303f:	c3                   	retq   

0000000034803040 <en_key_idea>:
    34803040:	31 c0                	xor    %eax,%eax
    34803042:	66 66 66 66 66 2e 0f 	data16 data16 data16 data16 nopw %cs:0x0(%rax,%rax,1)
    34803049:	1f 84 00 00 00 00 00 
    34803050:	0f b7 0c 47          	movzwl (%rdi,%rax,2),%ecx
    34803054:	66 89 0c 46          	mov    %cx,(%rsi,%rax,2)
    34803058:	48 ff c0             	inc    %rax
    3480305b:	48 83 f8 08          	cmp    $0x8,%rax
    3480305f:	0f 85 eb ff ff ff    	jne    34803050 <en_key_idea+0x10>
    34803065:	31 c9                	xor    %ecx,%ecx
    34803067:	b8 07 00 00 00       	mov    $0x7,%eax
    3480306c:	0f 1f 40 00          	nopl   0x0(%rax)
    34803070:	8d 51 01             	lea    0x1(%rcx),%edx
    34803073:	41 89 d1             	mov    %edx,%r9d
    34803076:	41 83 e1 07          	and    $0x7,%r9d
    3480307a:	46 0f b7 04 4e       	movzwl (%rsi,%r9,2),%r8d
    3480307f:	8d 79 02             	lea    0x2(%rcx),%edi
    34803082:	83 e7 07             	and    $0x7,%edi
    34803085:	0f b7 3c 7e          	movzwl (%rsi,%rdi,2),%edi
    34803089:	66 44 0f ac c7 07    	shrd   $0x7,%r8w,%di
    3480308f:	83 c9 08             	or     $0x8,%ecx
    34803092:	66 89 3c 4e          	mov    %di,(%rsi,%rcx,2)
    34803096:	83 e2 08             	and    $0x8,%edx
    34803099:	48 8d 34 56          	lea    (%rsi,%rdx,2),%rsi
    3480309d:	ff c0                	inc    %eax
    3480309f:	83 f8 33             	cmp    $0x33,%eax
    348030a2:	44 89 c9             	mov    %r9d,%ecx
    348030a5:	0f 8c c5 ff ff ff    	jl     34803070 <en_key_idea+0x30>
    348030ab:	c3                   	retq   
    348030ac:	0f 1f 40 00          	nopl   0x0(%rax)

00000000348030b0 <de_key_idea>:
    348030b0:	41 54                	push   %r12
    348030b2:	53                   	push   %rbx
    348030b3:	48 81 ec 88 00 00 00 	sub    $0x88,%rsp
    348030ba:	48 89 74 24 18       	mov    %rsi,0x18(%rsp)
    348030bf:	48 89 fb             	mov    %rdi,%rbx
    348030c2:	0f b7 3b             	movzwl (%rbx),%edi
    348030c5:	e8 76 29 00 00       	callq  34805a40 <inv>
    348030ca:	66 89 44 24 08       	mov    %ax,0x8(%rsp)
    348030cf:	31 c9                	xor    %ecx,%ecx
    348030d1:	45 31 e4             	xor    %r12d,%r12d
    348030d4:	66 44 2b 63 02       	sub    0x2(%rbx),%r12w
    348030d9:	0f b7 43 04          	movzwl 0x4(%rbx),%eax
    348030dd:	66 29 c1             	sub    %ax,%cx
    348030e0:	89 4c 24 04          	mov    %ecx,0x4(%rsp)
    348030e4:	0f b7 7b 06          	movzwl 0x6(%rbx),%edi
    348030e8:	48 83 c3 08          	add    $0x8,%rbx
    348030ec:	48 89 5c 24 10       	mov    %rbx,0x10(%rsp)
    348030f1:	e8 4a 29 00 00       	callq  34805a40 <inv>
    348030f6:	66 89 84 24 86 00 00 	mov    %ax,0x86(%rsp)
    348030fd:	00 
    348030fe:	8b 44 24 04          	mov    0x4(%rsp),%eax
    34803102:	66 89 84 24 84 00 00 	mov    %ax,0x84(%rsp)
    34803109:	00 
    3480310a:	66 44 89 a4 24 82 00 	mov    %r12w,0x82(%rsp)
    34803111:	00 00 
    34803113:	0f b7 44 24 08       	movzwl 0x8(%rsp),%eax
    34803118:	66 89 84 24 80 00 00 	mov    %ax,0x80(%rsp)
    3480311f:	00 
    34803120:	b9 54 00 00 00       	mov    $0x54,%ecx
    34803125:	e9 25 00 00 00       	jmpq   3480314f <de_key_idea+0x9f>
    3480312a:	66 0f 1f 44 00 00    	nopw   0x0(%rax,%rax,1)
    34803130:	66 44 89 64 0c 24    	mov    %r12w,0x24(%rsp,%rcx,1)
    34803136:	66 89 5c 0c 22       	mov    %bx,0x22(%rsp,%rcx,1)
    3480313b:	0f b7 44 24 04       	movzwl 0x4(%rsp),%eax
    34803140:	66 89 44 0c 20       	mov    %ax,0x20(%rsp,%rcx,1)
    34803145:	48 83 c1 f4          	add    $0xfffffffffffffff4,%rcx
    34803149:	48 83 44 24 10 0c    	addq   $0xc,0x10(%rsp)
    3480314f:	48 89 4c 24 08       	mov    %rcx,0x8(%rsp)
    34803154:	48 8b 5c 24 10       	mov    0x10(%rsp),%rbx
    34803159:	8b 03                	mov    (%rbx),%eax
    3480315b:	89 44 0c 28          	mov    %eax,0x28(%rsp,%rcx,1)
    3480315f:	0f b7 7b 04          	movzwl 0x4(%rbx),%edi
    34803163:	e8 d8 28 00 00       	callq  34805a40 <inv>
    34803168:	66 89 44 24 04       	mov    %ax,0x4(%rsp)
    3480316d:	45 31 e4             	xor    %r12d,%r12d
    34803170:	66 44 2b 63 06       	sub    0x6(%rbx),%r12w
    34803175:	0f b7 43 08          	movzwl 0x8(%rbx),%eax
    34803179:	48 89 d9             	mov    %rbx,%rcx
    3480317c:	31 db                	xor    %ebx,%ebx
    3480317e:	66 29 c3             	sub    %ax,%bx
    34803181:	0f b7 79 0a          	movzwl 0xa(%rcx),%edi
    34803185:	e8 b6 28 00 00       	callq  34805a40 <inv>
    3480318a:	48 8b 4c 24 08       	mov    0x8(%rsp),%rcx
    3480318f:	66 89 44 0c 26       	mov    %ax,0x26(%rsp,%rcx,1)
    34803194:	85 c9                	test   %ecx,%ecx
    34803196:	0f 85 94 ff ff ff    	jne    34803130 <de_key_idea+0x80>
    3480319c:	66 89 5c 24 24       	mov    %bx,0x24(%rsp)
    348031a1:	66 44 89 64 24 22    	mov    %r12w,0x22(%rsp)
    348031a7:	0f b7 44 24 04       	movzwl 0x4(%rsp),%eax
    348031ac:	66 89 44 24 20       	mov    %ax,0x20(%rsp)
    348031b1:	48 8b 7c 24 18       	mov    0x18(%rsp),%rdi
    348031b6:	66 89 07             	mov    %ax,(%rdi)
    348031b9:	66 c7 44 24 20 00 00 	movw   $0x0,0x20(%rsp)
    348031c0:	48 8d 47 02          	lea    0x2(%rdi),%rax
    348031c4:	48 8d 8c 24 88 00 00 	lea    0x88(%rsp),%rcx
    348031cb:	00 
    348031cc:	48 39 c8             	cmp    %rcx,%rax
    348031cf:	0f 83 1f 00 00 00    	jae    348031f4 <de_key_idea+0x144>
    348031d5:	48 8d 44 24 22       	lea    0x22(%rsp),%rax
    348031da:	48 8d 4f 68          	lea    0x68(%rdi),%rcx
    348031de:	be 01 00 00 00       	mov    $0x1,%esi
    348031e3:	48 39 c8             	cmp    %rcx,%rax
    348031e6:	0f 83 08 00 00 00    	jae    348031f4 <de_key_idea+0x144>
    348031ec:	48 89 f9             	mov    %rdi,%rcx
    348031ef:	e9 3d 00 00 00       	jmpq   34803231 <de_key_idea+0x181>
    348031f4:	48 8d 4f 60          	lea    0x60(%rdi),%rcx
    348031f8:	48 8d 84 24 82 00 00 	lea    0x82(%rsp),%rax
    348031ff:	00 
    34803200:	ba 01 00 00 00       	mov    $0x1,%edx
    34803205:	0f 57 c0             	xorps  %xmm0,%xmm0
    34803208:	0f 1f 84 00 00 00 00 	nopl   0x0(%rax,%rax,1)
    3480320f:	00 
    34803210:	0f 10 4c 54 20       	movups 0x20(%rsp,%rdx,2),%xmm1
    34803215:	0f 11 0c 57          	movups %xmm1,(%rdi,%rdx,2)
    34803219:	0f 11 44 54 20       	movups %xmm0,0x20(%rsp,%rdx,2)
    3480321e:	48 83 c2 08          	add    $0x8,%rdx
    34803222:	48 83 fa 31          	cmp    $0x31,%rdx
    34803226:	0f 85 e4 ff ff ff    	jne    34803210 <de_key_idea+0x160>
    3480322c:	be 31 00 00 00       	mov    $0x31,%esi
    34803231:	ba 34 00 00 00       	mov    $0x34,%edx
    34803236:	29 f2                	sub    %esi,%edx
    34803238:	48 83 c1 02          	add    $0x2,%rcx
    3480323c:	0f 1f 40 00          	nopl   0x0(%rax)
    34803240:	0f b7 30             	movzwl (%rax),%esi
    34803243:	66 89 31             	mov    %si,(%rcx)
    34803246:	66 c7 00 00 00       	movw   $0x0,(%rax)
    3480324b:	48 83 c0 02          	add    $0x2,%rax
    3480324f:	48 83 c1 02          	add    $0x2,%rcx
    34803253:	ff ca                	dec    %edx
    34803255:	0f 85 e5 ff ff ff    	jne    34803240 <de_key_idea+0x190>
    3480325b:	48 81 c4 88 00 00 00 	add    $0x88,%rsp
    34803262:	5b                   	pop    %rbx
    34803263:	41 5c                	pop    %r12
    34803265:	c3                   	retq   
    34803266:	66 2e 0f 1f 84 00 00 	nopw   %cs:0x0(%rax,%rax,1)
    3480326d:	00 00 00 

0000000034803270 <DoIDEAIteration>:
    34803270:	41 54                	push   %r12
    34803272:	53                   	push   %rbx
    34803273:	48 83 ec 48          	sub    $0x48,%rsp
    34803277:	4c 89 4c 24 40       	mov    %r9,0x40(%rsp)
    3480327c:	4c 89 c3             	mov    %r8,%rbx
    3480327f:	49 89 cc             	mov    %rcx,%r12
    34803282:	48 89 54 24 38       	mov    %rdx,0x38(%rsp)
    34803287:	48 89 74 24 08       	mov    %rsi,0x8(%rsp)
    3480328c:	48 89 7c 24 30       	mov    %rdi,0x30(%rsp)
    34803291:	48 8b 44 24 60       	mov    0x60(%rsp),%rax
    34803296:	48 89 44 24 28       	mov    %rax,0x28(%rsp)
    3480329b:	31 c0                	xor    %eax,%eax
    3480329d:	e8 2e 3d 00 00       	callq  34806fd0 <StartStopwatch>
    348032a2:	4c 89 e1             	mov    %r12,%rcx
    348032a5:	48 89 44 24 10       	mov    %rax,0x10(%rsp)
    348032aa:	48 89 5c 24 18       	mov    %rbx,0x18(%rsp)
    348032af:	48 85 db             	test   %rbx,%rbx
    348032b2:	0f 84 9a 00 00 00    	je     34803352 <DoIDEAIteration+0xe2>
    348032b8:	31 c0                	xor    %eax,%eax
    348032ba:	48 89 0c 24          	mov    %rcx,(%rsp)
    348032be:	66 90                	xchg   %ax,%ax
    348032c0:	48 89 44 24 20       	mov    %rax,0x20(%rsp)
    348032c5:	48 85 c9             	test   %rcx,%rcx
    348032c8:	4c 8b 64 24 08       	mov    0x8(%rsp),%r12
    348032cd:	0f 84 6c 00 00 00    	je     3480333f <DoIDEAIteration+0xcf>
    348032d3:	31 db                	xor    %ebx,%ebx
    348032d5:	66 66 2e 0f 1f 84 00 	data16 nopw %cs:0x0(%rax,%rax,1)
    348032dc:	00 00 00 00 
    348032e0:	48 8b 44 24 30       	mov    0x30(%rsp),%rax
    348032e5:	48 8d 3c 18          	lea    (%rax,%rbx,1),%rdi
    348032e9:	49 8d 34 1c          	lea    (%r12,%rbx,1),%rsi
    348032ed:	48 8b 54 24 40       	mov    0x40(%rsp),%rdx
    348032f2:	e8 d9 25 00 00       	callq  348058d0 <cipher_idea>
    348032f7:	48 83 c3 08          	add    $0x8,%rbx
    348032fb:	48 3b 1c 24          	cmp    (%rsp),%rbx
    348032ff:	0f 82 db ff ff ff    	jb     348032e0 <DoIDEAIteration+0x70>
    34803305:	31 db                	xor    %ebx,%ebx
    34803307:	48 8b 0c 24          	mov    (%rsp),%rcx
    3480330b:	0f 1f 44 00 00       	nopl   0x0(%rax,%rax,1)
    34803310:	49 8d 3c 1c          	lea    (%r12,%rbx,1),%rdi
    34803314:	48 8b 44 24 38       	mov    0x38(%rsp),%rax
    34803319:	48 8d 34 18          	lea    (%rax,%rbx,1),%rsi
    3480331d:	48 8b 54 24 28       	mov    0x28(%rsp),%rdx
    34803322:	49 89 cc             	mov    %rcx,%r12
    34803325:	e8 a6 25 00 00       	callq  348058d0 <cipher_idea>
    3480332a:	4c 89 e1             	mov    %r12,%rcx
    3480332d:	4c 8b 64 24 08       	mov    0x8(%rsp),%r12
    34803332:	48 83 c3 08          	add    $0x8,%rbx
    34803336:	48 39 cb             	cmp    %rcx,%rbx
    34803339:	0f 82 d1 ff ff ff    	jb     34803310 <DoIDEAIteration+0xa0>
    3480333f:	48 8b 44 24 20       	mov    0x20(%rsp),%rax
    34803344:	48 ff c0             	inc    %rax
    34803347:	48 3b 44 24 18       	cmp    0x18(%rsp),%rax
    3480334c:	0f 85 6e ff ff ff    	jne    348032c0 <DoIDEAIteration+0x50>
    34803352:	48 8b 7c 24 10       	mov    0x10(%rsp),%rdi
    34803357:	48 83 c4 48          	add    $0x48,%rsp
    3480335b:	5b                   	pop    %rbx
    3480335c:	41 5c                	pop    %r12
    3480335e:	e9 7d 3c 00 00       	jmpq   34806fe0 <StopStopwatch>
    34803363:	66 66 66 66 2e 0f 1f 	data16 data16 data16 nopw %cs:0x0(%rax,%rax,1)
    3480336a:	84 00 00 00 00 00 

0000000034803370 <DoHuffman>:
    34803370:	41 54                	push   %r12
    34803372:	53                   	push   %rbx
    34803373:	48 83 ec 68          	sub    $0x68,%rsp
    34803377:	48 8b 3d 92 56 b1 00 	mov    0xb15692(%rip),%rdi        # 35318a10 <global_huffstruct+0x10>
    3480337e:	48 8d 74 24 04       	lea    0x4(%rsp),%rsi
    34803383:	e8 38 39 00 00       	callq  34806cc0 <AllocateMemory>
    34803388:	48 89 c3             	mov    %rax,%rbx
    3480338b:	8b 74 24 04          	mov    0x4(%rsp),%esi
    3480338f:	85 f6                	test   %esi,%esi
    34803391:	0f 84 11 00 00 00    	je     348033a8 <DoHuffman+0x38>
    34803397:	bf 3d 3a 81 34       	mov    $0x34813a3d,%edi
    3480339c:	e8 6f 3b 00 00       	callq  34806f10 <ReportError>
    348033a1:	31 c0                	xor    %eax,%eax
    348033a3:	e8 18 3c 00 00       	callq  34806fc0 <ErrorExit>
    348033a8:	48 8b 3d 61 56 b1 00 	mov    0xb15661(%rip),%rdi        # 35318a10 <global_huffstruct+0x10>
    348033af:	48 8d 74 24 04       	lea    0x4(%rsp),%rsi
    348033b4:	e8 07 39 00 00       	callq  34806cc0 <AllocateMemory>
    348033b9:	48 89 44 24 08       	mov    %rax,0x8(%rsp)
    348033be:	8b 74 24 04          	mov    0x4(%rsp),%esi
    348033c2:	85 f6                	test   %esi,%esi
    348033c4:	0f 84 1e 00 00 00    	je     348033e8 <DoHuffman+0x78>
    348033ca:	bf 3d 3a 81 34       	mov    $0x34813a3d,%edi
    348033cf:	e8 3c 3b 00 00       	callq  34806f10 <ReportError>
    348033d4:	48 8d 74 24 04       	lea    0x4(%rsp),%rsi
    348033d9:	48 89 df             	mov    %rbx,%rdi
    348033dc:	e8 ff 39 00 00       	callq  34806de0 <FreeMemory>
    348033e1:	31 c0                	xor    %eax,%eax
    348033e3:	e8 d8 3b 00 00       	callq  34806fc0 <ErrorExit>
    348033e8:	48 8b 3d 21 56 b1 00 	mov    0xb15621(%rip),%rdi        # 35318a10 <global_huffstruct+0x10>
    348033ef:	48 8d 74 24 04       	lea    0x4(%rsp),%rsi
    348033f4:	e8 c7 38 00 00       	callq  34806cc0 <AllocateMemory>
    348033f9:	48 89 44 24 10       	mov    %rax,0x10(%rsp)
    348033fe:	8b 74 24 04          	mov    0x4(%rsp),%esi
    34803402:	85 f6                	test   %esi,%esi
    34803404:	0f 84 2e 00 00 00    	je     34803438 <DoHuffman+0xc8>
    3480340a:	bf 3d 3a 81 34       	mov    $0x34813a3d,%edi
    3480340f:	e8 fc 3a 00 00       	callq  34806f10 <ReportError>
    34803414:	4c 8d 64 24 04       	lea    0x4(%rsp),%r12
    34803419:	48 89 df             	mov    %rbx,%rdi
    3480341c:	4c 89 e6             	mov    %r12,%rsi
    3480341f:	e8 bc 39 00 00       	callq  34806de0 <FreeMemory>
    34803424:	48 8b 7c 24 08       	mov    0x8(%rsp),%rdi
    34803429:	4c 89 e6             	mov    %r12,%rsi
    3480342c:	e8 af 39 00 00       	callq  34806de0 <FreeMemory>
    34803431:	31 c0                	xor    %eax,%eax
    34803433:	e8 88 3b 00 00       	callq  34806fc0 <ErrorExit>
    34803438:	48 8d 74 24 04       	lea    0x4(%rsp),%rsi
    3480343d:	bf 00 28 00 00       	mov    $0x2800,%edi
    34803442:	e8 79 38 00 00       	callq  34806cc0 <AllocateMemory>
    34803447:	48 89 05 a2 42 21 00 	mov    %rax,0x2142a2(%rip)        # 34a176f0 <hufftree>
    3480344e:	8b 74 24 04          	mov    0x4(%rsp),%esi
    34803452:	85 f6                	test   %esi,%esi
    34803454:	0f 84 3b 00 00 00    	je     34803495 <DoHuffman+0x125>
    3480345a:	bf 3d 3a 81 34       	mov    $0x34813a3d,%edi
    3480345f:	e8 ac 3a 00 00       	callq  34806f10 <ReportError>
    34803464:	4c 8d 64 24 04       	lea    0x4(%rsp),%r12
    34803469:	48 89 df             	mov    %rbx,%rdi
    3480346c:	4c 89 e6             	mov    %r12,%rsi
    3480346f:	e8 6c 39 00 00       	callq  34806de0 <FreeMemory>
    34803474:	48 8b 7c 24 08       	mov    0x8(%rsp),%rdi
    34803479:	4c 89 e6             	mov    %r12,%rsi
    3480347c:	e8 5f 39 00 00       	callq  34806de0 <FreeMemory>
    34803481:	48 8b 7c 24 10       	mov    0x10(%rsp),%rdi
    34803486:	4c 89 e6             	mov    %r12,%rsi
    34803489:	e8 52 39 00 00       	callq  34806de0 <FreeMemory>
    3480348e:	31 c0                	xor    %eax,%eax
    34803490:	e8 2b 3b 00 00       	callq  34806fc0 <ErrorExit>
    34803495:	bf 0d 00 00 00       	mov    $0xd,%edi
    3480349a:	e8 71 dd ff ff       	callq  34801210 <randnum>
    3480349f:	48 8b 35 6a 55 b1 00 	mov    0xb1556a(%rip),%rsi        # 35318a10 <global_huffstruct+0x10>
    348034a6:	48 ff ce             	dec    %rsi
    348034a9:	48 89 df             	mov    %rbx,%rdi
    348034ac:	e8 af 01 00 00       	callq  34803660 <create_text_block>
    348034b1:	48 8b 05 58 55 b1 00 	mov    0xb15558(%rip),%rax        # 35318a10 <global_huffstruct+0x10>
    348034b8:	c6 44 03 ff 00       	movb   $0x0,-0x1(%rbx,%rax,1)
    348034bd:	83 3d 3c 55 b1 00 00 	cmpl   $0x0,0xb1553c(%rip)        # 35318a00 <global_huffstruct>
    348034c4:	49 89 dc             	mov    %rbx,%r12
    348034c7:	48 8b 5c 24 08       	mov    0x8(%rsp),%rbx
    348034cc:	0f 85 68 00 00 00    	jne    3480353a <DoHuffman+0x1ca>
    348034d2:	48 c7 05 3b 55 b1 00 	movq   $0x64,0xb1553b(%rip)        # 35318a18 <global_huffstruct+0x18>
    348034d9:	64 00 00 00 
    348034dd:	41 b8 64 00 00 00    	mov    $0x64,%r8d
    348034e3:	66 66 66 66 2e 0f 1f 	data16 data16 data16 nopw %cs:0x0(%rax,%rax,1)
    348034ea:	84 00 00 00 00 00 
    348034f0:	48 8b 0d 19 55 b1 00 	mov    0xb15519(%rip),%rcx        # 35318a10 <global_huffstruct+0x10>
    348034f7:	4c 8b 0d f2 41 21 00 	mov    0x2141f2(%rip),%r9        # 34a176f0 <hufftree>
    348034fe:	4c 89 e7             	mov    %r12,%rdi
    34803501:	48 89 de             	mov    %rbx,%rsi
    34803504:	48 8b 54 24 10       	mov    0x10(%rsp),%rdx
    34803509:	e8 e2 01 00 00       	callq  348036f0 <DoHuffIteration>
    3480350e:	48 3b 05 4b 55 b1 00 	cmp    0xb1554b(%rip),%rax        # 35318a60 <global_min_ticks>
    34803515:	0f 87 1f 00 00 00    	ja     3480353a <DoHuffman+0x1ca>
    3480351b:	4c 8b 05 f6 54 b1 00 	mov    0xb154f6(%rip),%r8        # 35318a18 <global_huffstruct+0x18>
    34803522:	49 83 c0 0a          	add    $0xa,%r8
    34803526:	4c 89 05 eb 54 b1 00 	mov    %r8,0xb154eb(%rip)        # 35318a18 <global_huffstruct+0x18>
    3480352d:	49 81 f8 20 a1 07 00 	cmp    $0x7a120,%r8
    34803534:	0f 82 b6 ff ff ff    	jb     348034f0 <DoHuffman+0x180>
    3480353a:	66 0f 57 c0          	xorpd  %xmm0,%xmm0
    3480353e:	f2 0f 11 44 24 18    	movsd  %xmm0,0x18(%rsp)
    34803544:	31 db                	xor    %ebx,%ebx
    34803546:	66 2e 0f 1f 84 00 00 	nopw   %cs:0x0(%rax,%rax,1)
    3480354d:	00 00 00 
    34803550:	48 8b 0d b9 54 b1 00 	mov    0xb154b9(%rip),%rcx        # 35318a10 <global_huffstruct+0x10>
    34803557:	4c 8b 05 ba 54 b1 00 	mov    0xb154ba(%rip),%r8        # 35318a18 <global_huffstruct+0x18>
    3480355e:	4c 8b 0d 8b 41 21 00 	mov    0x21418b(%rip),%r9        # 34a176f0 <hufftree>
    34803565:	4c 89 e7             	mov    %r12,%rdi
    34803568:	48 8b 74 24 08       	mov    0x8(%rsp),%rsi
    3480356d:	48 8b 54 24 10       	mov    0x10(%rsp),%rdx
    34803572:	e8 79 01 00 00       	callq  348036f0 <DoHuffIteration>
    34803577:	48 01 c3             	add    %rax,%rbx
    3480357a:	f3 0f 7e 05 96 54 b1 	movq   0xb15496(%rip),%xmm0        # 35318a18 <global_huffstruct+0x18>
    34803581:	00 
    34803582:	66 0f 62 05 66 02 01 	punpckldq 0x10266(%rip),%xmm0        # 348137f0 <DoEmFloatIteration.jtable+0x8d0>
    34803589:	00 
    3480358a:	66 0f 5c 05 6e 02 01 	subpd  0x1026e(%rip),%xmm0        # 34813800 <DoEmFloatIteration.jtable+0x8e0>
    34803591:	00 
    34803592:	66 0f 70 c8 4e       	pshufd $0x4e,%xmm0,%xmm1
    34803597:	66 0f 58 c8          	addpd  %xmm0,%xmm1
    3480359b:	f2 0f 10 44 24 18    	movsd  0x18(%rsp),%xmm0
    348035a1:	f2 0f 58 c1          	addsd  %xmm1,%xmm0
    348035a5:	f2 0f 11 44 24 18    	movsd  %xmm0,0x18(%rsp)
    348035ab:	48 89 df             	mov    %rbx,%rdi
    348035ae:	e8 3d 3a 00 00       	callq  34806ff0 <TicksToSecs>
    348035b3:	48 3b 05 4e 54 b1 00 	cmp    0xb1544e(%rip),%rax        # 35318a08 <global_huffstruct+0x8>
    348035ba:	0f 82 90 ff ff ff    	jb     34803550 <DoHuffman+0x1e0>
    348035c0:	48 8d 44 24 04       	lea    0x4(%rsp),%rax
    348035c5:	4c 89 e7             	mov    %r12,%rdi
    348035c8:	49 89 c4             	mov    %rax,%r12
    348035cb:	4c 89 e6             	mov    %r12,%rsi
    348035ce:	e8 0d 38 00 00       	callq  34806de0 <FreeMemory>
    348035d3:	48 8b 7c 24 08       	mov    0x8(%rsp),%rdi
    348035d8:	4c 89 e6             	mov    %r12,%rsi
    348035db:	e8 00 38 00 00       	callq  34806de0 <FreeMemory>
    348035e0:	48 8b 7c 24 10       	mov    0x10(%rsp),%rdi
    348035e5:	4c 89 e6             	mov    %r12,%rsi
    348035e8:	e8 f3 37 00 00       	callq  34806de0 <FreeMemory>
    348035ed:	48 8b 3d fc 40 21 00 	mov    0x2140fc(%rip),%rdi        # 34a176f0 <hufftree>
    348035f4:	4c 89 e6             	mov    %r12,%rsi
    348035f7:	e8 e4 37 00 00       	callq  34806de0 <FreeMemory>
    348035fc:	48 89 df             	mov    %rbx,%rdi
    348035ff:	e8 0c 3a 00 00       	callq  34807010 <TicksToFracSecs>
    34803604:	f2 0f 10 4c 24 18    	movsd  0x18(%rsp),%xmm1
    3480360a:	f2 0f 5e c8          	divsd  %xmm0,%xmm1
    3480360e:	f2 0f 11 0d 0a 54 b1 	movsd  %xmm1,0xb1540a(%rip)        # 35318a20 <global_huffstruct+0x20>
    34803615:	00 
    34803616:	48 89 df             	mov    %rbx,%rdi
    34803619:	e8 f2 39 00 00       	callq  34807010 <TicksToFracSecs>
    3480361e:	f2 0f 5e 44 24 18    	divsd  0x18(%rsp),%xmm0
    34803624:	48 8d 5c 24 20       	lea    0x20(%rsp),%rbx
    34803629:	be ac 39 81 34       	mov    $0x348139ac,%esi
    3480362e:	b0 01                	mov    $0x1,%al
    34803630:	48 89 df             	mov    %rbx,%rdi
    34803633:	e8 48 8c 00 00       	callq  3480c280 <sprintf>
    34803638:	48 89 df             	mov    %rbx,%rdi
    3480363b:	e8 80 92 00 00       	callq  3480c8c0 <puts>
    34803640:	83 3d b9 53 b1 00 00 	cmpl   $0x0,0xb153b9(%rip)        # 35318a00 <global_huffstruct>
    34803647:	0f 85 0a 00 00 00    	jne    34803657 <DoHuffman+0x2e7>
    3480364d:	c7 05 a9 53 b1 00 01 	movl   $0x1,0xb153a9(%rip)        # 35318a00 <global_huffstruct>
    34803654:	00 00 00 
    34803657:	48 83 c4 68          	add    $0x68,%rsp
    3480365b:	5b                   	pop    %rbx
    3480365c:	41 5c                	pop    %r12
    3480365e:	c3                   	retq   
    3480365f:	90                   	nop

0000000034803660 <create_text_block>:
    34803660:	41 54                	push   %r12
    34803662:	53                   	push   %rbx
    34803663:	48 83 ec 18          	sub    $0x18,%rsp
    34803667:	48 89 7c 24 08       	mov    %rdi,0x8(%rsp)
    3480366c:	31 db                	xor    %ebx,%ebx
    3480366e:	48 89 74 24 10       	mov    %rsi,0x10(%rsp)
    34803673:	66 66 66 66 2e 0f 1f 	data16 data16 data16 nopw %cs:0x0(%rax,%rax,1)
    3480367a:	84 00 00 00 00 00 
    34803680:	bf ee 01 00 00       	mov    $0x1ee,%edi
    34803685:	e8 06 dc ff ff       	callq  34801290 <abs_randwc>
    3480368a:	48 8b 74 24 10       	mov    0x10(%rsp),%rsi
    3480368f:	83 c0 06             	add    $0x6,%eax
    34803692:	48 8d 0c 03          	lea    (%rbx,%rax,1),%rcx
    34803696:	49 89 f4             	mov    %rsi,%r12
    34803699:	49 29 dc             	sub    %rbx,%r12
    3480369c:	48 39 f1             	cmp    %rsi,%rcx
    3480369f:	4c 0f 46 e0          	cmovbe %rax,%r12
    348036a3:	49 83 fc 02          	cmp    $0x2,%r12
    348036a7:	0f 82 12 00 00 00    	jb     348036bf <create_text_block+0x5f>
    348036ad:	48 8b 7c 24 08       	mov    0x8(%rsp),%rdi
    348036b2:	4c 89 e6             	mov    %r12,%rsi
    348036b5:	e8 16 24 00 00       	callq  34805ad0 <create_text_line>
    348036ba:	48 8b 74 24 10       	mov    0x10(%rsp),%rsi
    348036bf:	48 8b 44 24 08       	mov    0x8(%rsp),%rax
    348036c4:	42 c6 44 20 ff 0a    	movb   $0xa,-0x1(%rax,%r12,1)
    348036ca:	4c 01 e0             	add    %r12,%rax
    348036cd:	48 89 44 24 08       	mov    %rax,0x8(%rsp)
    348036d2:	4c 01 e3             	add    %r12,%rbx
    348036d5:	48 39 f3             	cmp    %rsi,%rbx
    348036d8:	0f 82 a2 ff ff ff    	jb     34803680 <create_text_block+0x20>
    348036de:	48 83 c4 18          	add    $0x18,%rsp
    348036e2:	5b                   	pop    %rbx
    348036e3:	41 5c                	pop    %r12
    348036e5:	c3                   	retq   
    348036e6:	66 2e 0f 1f 84 00 00 	nopw   %cs:0x0(%rax,%rax,1)
    348036ed:	00 00 00 

00000000348036f0 <DoHuffIteration>:
    348036f0:	41 54                	push   %r12
    348036f2:	53                   	push   %rbx
    348036f3:	48 81 ec a8 00 00 00 	sub    $0xa8,%rsp
    348036fa:	4c 89 cb             	mov    %r9,%rbx
    348036fd:	4d 89 c4             	mov    %r8,%r12
    34803700:	48 89 0c 24          	mov    %rcx,(%rsp)
    34803704:	48 89 54 24 78       	mov    %rdx,0x78(%rsp)
    34803709:	48 89 74 24 50       	mov    %rsi,0x50(%rsp)
    3480370e:	48 89 7c 24 38       	mov    %rdi,0x38(%rsp)
    34803713:	31 c0                	xor    %eax,%eax
    34803715:	e8 b6 38 00 00       	callq  34806fd0 <StartStopwatch>
    3480371a:	49 89 d9             	mov    %rbx,%r9
    3480371d:	48 89 44 24 58       	mov    %rax,0x58(%rsp)
    34803722:	4d 85 e4             	test   %r12,%r12
    34803725:	0f 84 6b 04 00 00    	je     34803b96 <DoHuffIteration+0x4a6>
    3480372b:	48 8b 0c 24          	mov    (%rsp),%rcx
    3480372f:	48 85 c9             	test   %rcx,%rcx
    34803732:	0f 88 0a 00 00 00    	js     34803742 <DoHuffIteration+0x52>
    34803738:	f3 48 0f 2a c1       	cvtsi2ss %rcx,%xmm0
    3480373d:	e9 15 00 00 00       	jmpq   34803757 <DoHuffIteration+0x67>
    34803742:	48 89 c8             	mov    %rcx,%rax
    34803745:	48 d1 e8             	shr    %rax
    34803748:	83 e1 01             	and    $0x1,%ecx
    3480374b:	48 09 c1             	or     %rax,%rcx
    3480374e:	f3 48 0f 2a c1       	cvtsi2ss %rcx,%xmm0
    34803753:	f3 0f 58 c0          	addss  %xmm0,%xmm0
    34803757:	f3 0f 11 44 24 0c    	movss  %xmm0,0xc(%rsp)
    3480375d:	49 8d 81 00 14 00 00 	lea    0x1400(%r9),%rax
    34803764:	48 89 44 24 68       	mov    %rax,0x68(%rsp)
    34803769:	49 8d 41 04          	lea    0x4(%r9),%rax
    3480376d:	48 89 44 24 60       	mov    %rax,0x60(%rsp)
    34803772:	49 8d 41 08          	lea    0x8(%r9),%rax
    34803776:	48 89 44 24 40       	mov    %rax,0x40(%rsp)
    3480377b:	f3 0f 10 0d cd 00 01 	movss  0x100cd(%rip),%xmm1        # 34813850 <DoEmFloatIteration.jtable+0x930>
    34803782:	00 
    34803783:	4c 89 4c 24 28       	mov    %r9,0x28(%rsp)
    34803788:	0f 1f 84 00 00 00 00 	nopl   0x0(%rax,%rax,1)
    3480378f:	00 
    34803790:	48 8b 44 24 60       	mov    0x60(%rsp),%rax
    34803795:	31 c9                	xor    %ecx,%ecx
    34803797:	66 0f 1f 84 00 00 00 	nopw   0x0(%rax,%rax,1)
    3480379e:	00 00 
    348037a0:	c7 00 00 00 00 00    	movl   $0x0,(%rax)
    348037a6:	88 48 fc             	mov    %cl,-0x4(%rax)
    348037a9:	48 ff c1             	inc    %rcx
    348037ac:	48 83 c0 14          	add    $0x14,%rax
    348037b0:	48 81 f9 00 01 00 00 	cmp    $0x100,%rcx
    348037b7:	0f 85 e3 ff ff ff    	jne    348037a0 <DoHuffIteration+0xb0>
    348037bd:	48 8b 04 24          	mov    (%rsp),%rax
    348037c1:	48 85 c0             	test   %rax,%rax
    348037c4:	48 8b 4c 24 38       	mov    0x38(%rsp),%rcx
    348037c9:	0f 84 27 00 00 00    	je     348037f6 <DoHuffIteration+0x106>
    348037cf:	90                   	nop
    348037d0:	48 0f be 11          	movsbq (%rcx),%rdx
    348037d4:	48 8d 14 92          	lea    (%rdx,%rdx,4),%rdx
    348037d8:	f3 41 0f 10 44 91 04 	movss  0x4(%r9,%rdx,4),%xmm0
    348037df:	f3 0f 58 c1          	addss  %xmm1,%xmm0
    348037e3:	f3 41 0f 11 44 91 04 	movss  %xmm0,0x4(%r9,%rdx,4)
    348037ea:	48 ff c1             	inc    %rcx
    348037ed:	48 ff c8             	dec    %rax
    348037f0:	0f 85 da ff ff ff    	jne    348037d0 <DoHuffIteration+0xe0>
    348037f6:	49 ff cc             	dec    %r12
    348037f9:	b8 04 00 00 00       	mov    $0x4,%eax
    348037fe:	66 90                	xchg   %ax,%ax
    34803800:	f3 41 0f 10 04 01    	movss  (%r9,%rax,1),%xmm0
    34803806:	0f 2e 04 25 58 38 81 	ucomiss 0x34813858,%xmm0
    3480380d:	34 
    3480380e:	0f 85 06 00 00 00    	jne    3480381a <DoHuffIteration+0x12a>
    34803814:	0f 8b 0c 00 00 00    	jnp    34803826 <DoHuffIteration+0x136>
    3480381a:	f3 0f 5e 44 24 0c    	divss  0xc(%rsp),%xmm0
    34803820:	f3 41 0f 11 04 01    	movss  %xmm0,(%r9,%rax,1)
    34803826:	48 83 c0 14          	add    $0x14,%rax
    3480382a:	48 3d 04 14 00 00    	cmp    $0x1404,%rax
    34803830:	0f 85 ca ff ff ff    	jne    34803800 <DoHuffIteration+0x110>
    34803836:	31 f6                	xor    %esi,%esi
    34803838:	ba 00 14 00 00       	mov    $0x1400,%edx
    3480383d:	48 8b 7c 24 68       	mov    0x68(%rsp),%rdi
    34803842:	e8 46 7f 00 00       	callq  3480b78d <memset>
    34803847:	4c 8b 4c 24 28       	mov    0x28(%rsp),%r9
    3480384c:	b8 10 00 00 00       	mov    $0x10,%eax
    34803851:	66 66 66 66 66 66 2e 	data16 data16 data16 data16 data16 nopw %cs:0x0(%rax,%rax,1)
    34803858:	0f 1f 84 00 00 00 00 
    3480385f:	00 
    34803860:	f3 41 0f 10 44 01 f4 	movss  -0xc(%r9,%rax,1),%xmm0
    34803867:	b9 00 7d 00 00       	mov    $0x7d00,%ecx
    3480386c:	0f 2e 04 25 58 38 81 	ucomiss 0x34813858,%xmm0
    34803873:	34 
    34803874:	0f 85 06 00 00 00    	jne    34803880 <DoHuffIteration+0x190>
    3480387a:	0f 8b 0e 00 00 00    	jnp    3480388e <DoHuffIteration+0x19e>
    34803880:	49 c7 44 01 fc ff ff 	movq   $0xffffffffffffffff,-0x4(%r9,%rax,1)
    34803887:	ff ff 
    34803889:	b9 ff ff ff ff       	mov    $0xffffffff,%ecx
    3480388e:	41 89 4c 01 f8       	mov    %ecx,-0x8(%r9,%rax,1)
    34803893:	48 83 c0 14          	add    $0x14,%rax
    34803897:	48 3d 10 28 00 00    	cmp    $0x2810,%rax
    3480389d:	0f 85 bd ff ff ff    	jne    34803860 <DoHuffIteration+0x170>
    348038a3:	41 ba ff 00 00 00    	mov    $0xff,%r10d
    348038a9:	b8 00 01 00 00       	mov    $0x100,%eax
    348038ae:	e9 56 00 00 00       	jmpq   34803909 <DoHuffIteration+0x219>
    348038b3:	66 66 66 66 2e 0f 1f 	data16 data16 data16 nopw %cs:0x0(%rax,%rax,1)
    348038ba:	84 00 00 00 00 00 
    348038c0:	83 fe ff             	cmp    $0xffffffff,%esi
    348038c3:	0f 84 f7 00 00 00    	je     348039c0 <DoHuffIteration+0x2d0>
    348038c9:	49 ff c2             	inc    %r10
    348038cc:	49 63 c8             	movslq %r8d,%rcx
    348038cf:	48 8d 0c 89          	lea    (%rcx,%rcx,4),%rcx
    348038d3:	45 89 54 89 08       	mov    %r10d,0x8(%r9,%rcx,4)
    348038d8:	48 63 ce             	movslq %esi,%rcx
    348038db:	48 8d 0c 89          	lea    (%rcx,%rcx,4),%rcx
    348038df:	45 89 54 89 08       	mov    %r10d,0x8(%r9,%rcx,4)
    348038e4:	f3 0f 58 c1          	addss  %xmm1,%xmm0
    348038e8:	4b 8d 0c 92          	lea    (%r10,%r10,4),%rcx
    348038ec:	f3 41 0f 11 44 89 04 	movss  %xmm0,0x4(%r9,%rcx,4)
    348038f3:	41 89 54 89 0c       	mov    %edx,0xc(%r9,%rcx,4)
    348038f8:	41 89 74 89 10       	mov    %esi,0x10(%r9,%rcx,4)
    348038fd:	41 c7 44 89 08 fe ff 	movl   $0xfffffffe,0x8(%r9,%rcx,4)
    34803904:	ff ff 
    34803906:	48 ff c0             	inc    %rax
    34803909:	41 b8 ff ff ff ff    	mov    $0xffffffff,%r8d
    3480390f:	48 8b 54 24 40       	mov    0x40(%rsp),%rdx
    34803914:	31 f6                	xor    %esi,%esi
    34803916:	f3 0f 10 05 36 ff 00 	movss  0xff36(%rip),%xmm0        # 34813854 <DoEmFloatIteration.jtable+0x934>
    3480391d:	00 
    3480391e:	66 90                	xchg   %ax,%ax
    34803920:	83 3a 00             	cmpl   $0x0,(%rdx)
    34803923:	0f 89 17 00 00 00    	jns    34803940 <DoHuffIteration+0x250>
    34803929:	f3 0f 10 4a fc       	movss  -0x4(%rdx),%xmm1
    3480392e:	0f 2e c1             	ucomiss %xmm1,%xmm0
    34803931:	0f 86 09 00 00 00    	jbe    34803940 <DoHuffIteration+0x250>
    34803937:	0f 28 c1             	movaps %xmm1,%xmm0
    3480393a:	41 89 f0             	mov    %esi,%r8d
    3480393d:	0f 1f 00             	nopl   (%rax)
    34803940:	48 ff c6             	inc    %rsi
    34803943:	48 83 c2 14          	add    $0x14,%rdx
    34803947:	48 39 f0             	cmp    %rsi,%rax
    3480394a:	0f 85 d0 ff ff ff    	jne    34803920 <DoHuffIteration+0x230>
    34803950:	41 83 f8 ff          	cmp    $0xffffffff,%r8d
    34803954:	0f 84 66 00 00 00    	je     348039c0 <DoHuffIteration+0x2d0>
    3480395a:	44 89 c2             	mov    %r8d,%edx
    3480395d:	be ff ff ff ff       	mov    $0xffffffff,%esi
    34803962:	48 8b 7c 24 40       	mov    0x40(%rsp),%rdi
    34803967:	31 db                	xor    %ebx,%ebx
    34803969:	f3 0f 10 0d e3 fe 00 	movss  0xfee3(%rip),%xmm1        # 34813854 <DoEmFloatIteration.jtable+0x934>
    34803970:	00 
    34803971:	66 66 66 66 66 66 2e 	data16 data16 data16 data16 data16 nopw %cs:0x0(%rax,%rax,1)
    34803978:	0f 1f 84 00 00 00 00 
    3480397f:	00 
    34803980:	48 39 da             	cmp    %rbx,%rdx
    34803983:	0f 84 1d 00 00 00    	je     348039a6 <DoHuffIteration+0x2b6>
    34803989:	8b 0f                	mov    (%rdi),%ecx
    3480398b:	85 c9                	test   %ecx,%ecx
    3480398d:	0f 89 13 00 00 00    	jns    348039a6 <DoHuffIteration+0x2b6>
    34803993:	f3 0f 10 57 fc       	movss  -0x4(%rdi),%xmm2
    34803998:	0f 2e ca             	ucomiss %xmm2,%xmm1
    3480399b:	0f 86 05 00 00 00    	jbe    348039a6 <DoHuffIteration+0x2b6>
    348039a1:	0f 28 ca             	movaps %xmm2,%xmm1
    348039a4:	89 de                	mov    %ebx,%esi
    348039a6:	48 ff c3             	inc    %rbx
    348039a9:	48 83 c7 14          	add    $0x14,%rdi
    348039ad:	48 39 d8             	cmp    %rbx,%rax
    348039b0:	0f 85 ca ff ff ff    	jne    34803980 <DoHuffIteration+0x290>
    348039b6:	e9 05 ff ff ff       	jmpq   348038c0 <DoHuffIteration+0x1d0>
    348039bb:	0f 1f 44 00 00       	nopl   0x0(%rax,%rax,1)
    348039c0:	48 83 3c 24 00       	cmpq   $0x0,(%rsp)
    348039c5:	4c 89 64 24 70       	mov    %r12,0x70(%rsp)
    348039ca:	0f 84 e0 00 00 00    	je     34803ab0 <DoHuffIteration+0x3c0>
    348039d0:	31 f6                	xor    %esi,%esi
    348039d2:	31 c0                	xor    %eax,%eax
    348039d4:	48 89 44 24 10       	mov    %rax,0x10(%rsp)
    348039d9:	48 8b 14 24          	mov    (%rsp),%rdx
    348039dd:	4c 89 54 24 18       	mov    %r10,0x18(%rsp)
    348039e2:	66 66 66 66 66 2e 0f 	data16 data16 data16 data16 nopw %cs:0x0(%rax,%rax,1)
    348039e9:	1f 84 00 00 00 00 00 
    348039f0:	48 8b 44 24 38       	mov    0x38(%rsp),%rax
    348039f5:	48 0f be 04 30       	movsbq (%rax,%rsi,1),%rax
    348039fa:	48 8d 0c 80          	lea    (%rax,%rax,4),%rcx
    348039fe:	41 8b 4c 89 08       	mov    0x8(%r9,%rcx,4),%ecx
    34803a03:	83 f9 fe             	cmp    $0xfffffffe,%ecx
    34803a06:	0f 84 8e 00 00 00    	je     34803a9a <DoHuffIteration+0x3aa>
    34803a0c:	48 89 74 24 30       	mov    %rsi,0x30(%rsp)
    34803a11:	45 31 e4             	xor    %r12d,%r12d
    34803a14:	66 66 66 2e 0f 1f 84 	data16 data16 nopw %cs:0x0(%rax,%rax,1)
    34803a1b:	00 00 00 00 00 
    34803a20:	48 63 d1             	movslq %ecx,%rdx
    34803a23:	48 8d 14 92          	lea    (%rdx,%rdx,4),%rdx
    34803a27:	41 39 44 91 0c       	cmp    %eax,0xc(%r9,%rdx,4)
    34803a2c:	0f 94 c0             	sete   %al
    34803a2f:	b3 31                	mov    $0x31,%bl
    34803a31:	28 c3                	sub    %al,%bl
    34803a33:	42 88 9c 24 80 00 00 	mov    %bl,0x80(%rsp,%r12,1)
    34803a3a:	00 
    34803a3b:	49 ff c4             	inc    %r12
    34803a3e:	89 c8                	mov    %ecx,%eax
    34803a40:	41 8b 4c 91 08       	mov    0x8(%r9,%rdx,4),%ecx
    34803a45:	83 f9 fe             	cmp    $0xfffffffe,%ecx
    34803a48:	0f 85 d2 ff ff ff    	jne    34803a20 <DoHuffIteration+0x330>
    34803a4e:	48 8b 44 24 10       	mov    0x10(%rsp),%rax
    34803a53:	89 c3                	mov    %eax,%ebx
    34803a55:	4c 89 64 24 20       	mov    %r12,0x20(%rsp)
    34803a5a:	66 0f 1f 44 00 00    	nopw   0x0(%rax,%rax,1)
    34803a60:	42 0f be 54 24 7f    	movsbl 0x7f(%rsp,%r12,1),%edx
    34803a66:	48 8b 7c 24 50       	mov    0x50(%rsp),%rdi
    34803a6b:	89 de                	mov    %ebx,%esi
    34803a6d:	e8 1e 21 00 00       	callq  34805b90 <SetCompBit>
    34803a72:	ff c3                	inc    %ebx
    34803a74:	49 ff cc             	dec    %r12
    34803a77:	0f 85 e3 ff ff ff    	jne    34803a60 <DoHuffIteration+0x370>
    34803a7d:	48 8b 44 24 20       	mov    0x20(%rsp),%rax
    34803a82:	48 01 44 24 10       	add    %rax,0x10(%rsp)
    34803a87:	4c 8b 4c 24 28       	mov    0x28(%rsp),%r9
    34803a8c:	48 8b 14 24          	mov    (%rsp),%rdx
    34803a90:	4c 8b 54 24 18       	mov    0x18(%rsp),%r10
    34803a95:	48 8b 74 24 30       	mov    0x30(%rsp),%rsi
    34803a9a:	48 ff c6             	inc    %rsi
    34803a9d:	48 39 d6             	cmp    %rdx,%rsi
    34803aa0:	0f 82 4a ff ff ff    	jb     348039f0 <DoHuffIteration+0x300>
    34803aa6:	e9 0c 00 00 00       	jmpq   34803ab7 <DoHuffIteration+0x3c7>
    34803aab:	0f 1f 44 00 00       	nopl   0x0(%rax,%rax,1)
    34803ab0:	31 c0                	xor    %eax,%eax
    34803ab2:	48 89 44 24 10       	mov    %rax,0x10(%rsp)
    34803ab7:	49 63 c2             	movslq %r10d,%rax
    34803aba:	48 89 44 24 48       	mov    %rax,0x48(%rsp)
    34803abf:	48 8d 04 80          	lea    (%rax,%rax,4),%rax
    34803ac3:	49 8d 44 81 0c       	lea    0xc(%r9,%rax,4),%rax
    34803ac8:	45 31 e4             	xor    %r12d,%r12d
    34803acb:	31 c9                	xor    %ecx,%ecx
    34803acd:	48 89 44 24 18       	mov    %rax,0x18(%rsp)
    34803ad2:	66 66 66 66 66 2e 0f 	data16 data16 data16 data16 nopw %cs:0x0(%rax,%rax,1)
    34803ad9:	1f 84 00 00 00 00 00 
    34803ae0:	83 38 ff             	cmpl   $0xffffffff,(%rax)
    34803ae3:	48 89 4c 24 20       	mov    %rcx,0x20(%rsp)
    34803ae8:	0f 84 62 00 00 00    	je     34803b50 <DoHuffIteration+0x460>
    34803aee:	48 89 c1             	mov    %rax,%rcx
    34803af1:	48 8b 5c 24 48       	mov    0x48(%rsp),%rbx
    34803af6:	66 2e 0f 1f 84 00 00 	nopw   %cs:0x0(%rax,%rax,1)
    34803afd:	00 00 00 
    34803b00:	48 89 4c 24 30       	mov    %rcx,0x30(%rsp)
    34803b05:	48 8b 7c 24 50       	mov    0x50(%rsp),%rdi
    34803b0a:	44 89 e6             	mov    %r12d,%esi
    34803b0d:	e8 be 20 00 00       	callq  34805bd0 <GetCompBit>
    34803b12:	4c 8b 4c 24 28       	mov    0x28(%rsp),%r9
    34803b17:	85 c0                	test   %eax,%eax
    34803b19:	48 8d 04 9b          	lea    (%rbx,%rbx,4),%rax
    34803b1d:	49 8d 44 81 10       	lea    0x10(%r9,%rax,4),%rax
    34803b22:	48 0f 44 44 24 30    	cmove  0x30(%rsp),%rax
    34803b28:	49 ff c4             	inc    %r12
    34803b2b:	48 63 18             	movslq (%rax),%rbx
    34803b2e:	48 8d 04 9b          	lea    (%rbx,%rbx,4),%rax
    34803b32:	49 8d 4c 81 0c       	lea    0xc(%r9,%rax,4),%rcx
    34803b37:	41 83 7c 81 0c ff    	cmpl   $0xffffffff,0xc(%r9,%rax,4)
    34803b3d:	0f 85 bd ff ff ff    	jne    34803b00 <DoHuffIteration+0x410>
    34803b43:	e9 0d 00 00 00       	jmpq   34803b55 <DoHuffIteration+0x465>
    34803b48:	0f 1f 84 00 00 00 00 	nopl   0x0(%rax,%rax,1)
    34803b4f:	00 
    34803b50:	48 8b 5c 24 48       	mov    0x48(%rsp),%rbx
    34803b55:	48 8d 04 9b          	lea    (%rbx,%rbx,4),%rax
    34803b59:	41 8a 04 81          	mov    (%r9,%rax,4),%al
    34803b5d:	48 8b 4c 24 78       	mov    0x78(%rsp),%rcx
    34803b62:	48 8b 54 24 20       	mov    0x20(%rsp),%rdx
    34803b67:	88 04 11             	mov    %al,(%rcx,%rdx,1)
    34803b6a:	48 89 d1             	mov    %rdx,%rcx
    34803b6d:	48 ff c1             	inc    %rcx
    34803b70:	4c 3b 64 24 10       	cmp    0x10(%rsp),%r12
    34803b75:	f3 0f 10 0d d3 fc 00 	movss  0xfcd3(%rip),%xmm1        # 34813850 <DoEmFloatIteration.jtable+0x930>
    34803b7c:	00 
    34803b7d:	48 8b 44 24 18       	mov    0x18(%rsp),%rax
    34803b82:	0f 8c 58 ff ff ff    	jl     34803ae0 <DoHuffIteration+0x3f0>
    34803b88:	4c 8b 64 24 70       	mov    0x70(%rsp),%r12
    34803b8d:	4d 85 e4             	test   %r12,%r12
    34803b90:	0f 85 fa fb ff ff    	jne    34803790 <DoHuffIteration+0xa0>
    34803b96:	48 8b 7c 24 58       	mov    0x58(%rsp),%rdi
    34803b9b:	e8 40 34 00 00       	callq  34806fe0 <StopStopwatch>
    34803ba0:	48 81 c4 a8 00 00 00 	add    $0xa8,%rsp
    34803ba7:	5b                   	pop    %rbx
    34803ba8:	41 5c                	pop    %r12
    34803baa:	c3                   	retq   
    34803bab:	0f 1f 44 00 00       	nopl   0x0(%rax,%rax,1)

0000000034803bb0 <DoNNET>:
    34803bb0:	31 ff                	xor    %edi,%edi
    34803bb2:	e9 09 00 00 00       	jmpq   34803bc0 <__DoNNET>
    34803bb7:	66 0f 1f 84 00 00 00 	nopw   0x0(%rax,%rax,1)
    34803bbe:	00 00 

0000000034803bc0 <__DoNNET>:
    34803bc0:	53                   	push   %rbx
    34803bc1:	48 83 ec 50          	sub    $0x50,%rsp
    34803bc5:	bf 03 00 00 00       	mov    $0x3,%edi
    34803bca:	e8 41 d6 ff ff       	callq  34801210 <randnum>
    34803bcf:	e8 6c 27 00 00       	callq  34806340 <read_data_mem>
    34803bd4:	83 3d e5 4e b1 00 00 	cmpl   $0x0,0xb14ee5(%rip)        # 35318ac0 <global_nnetstruct>
    34803bdb:	0f 85 4f 00 00 00    	jne    34803c30 <__DoNNET+0x70>
    34803be1:	48 c7 05 e4 4e b1 00 	movq   $0x1,0xb14ee4(%rip)        # 35318ad0 <global_nnetstruct+0x10>
    34803be8:	01 00 00 00 
    34803bec:	0f 1f 40 00          	nopl   0x0(%rax)
    34803bf0:	bf 03 00 00 00       	mov    $0x3,%edi
    34803bf5:	e8 16 d6 ff ff       	callq  34801210 <randnum>
    34803bfa:	48 8b 3d cf 4e b1 00 	mov    0xb14ecf(%rip),%rdi        # 35318ad0 <global_nnetstruct+0x10>
    34803c01:	e8 0a 01 00 00       	callq  34803d10 <DoNNetIteration>
    34803c06:	48 3b 05 53 4e b1 00 	cmp    0xb14e53(%rip),%rax        # 35318a60 <global_min_ticks>
    34803c0d:	0f 87 1d 00 00 00    	ja     34803c30 <__DoNNET+0x70>
    34803c13:	48 8b 05 b6 4e b1 00 	mov    0xb14eb6(%rip),%rax        # 35318ad0 <global_nnetstruct+0x10>
    34803c1a:	48 ff c0             	inc    %rax
    34803c1d:	48 89 05 ac 4e b1 00 	mov    %rax,0xb14eac(%rip)        # 35318ad0 <global_nnetstruct+0x10>
    34803c24:	48 3d 20 a1 07 00    	cmp    $0x7a120,%rax
    34803c2a:	0f 82 c0 ff ff ff    	jb     34803bf0 <__DoNNET+0x30>
    34803c30:	66 0f 57 c0          	xorpd  %xmm0,%xmm0
    34803c34:	f2 0f 11 44 24 08    	movsd  %xmm0,0x8(%rsp)
    34803c3a:	31 db                	xor    %ebx,%ebx
    34803c3c:	0f 1f 40 00          	nopl   0x0(%rax)
    34803c40:	bf 03 00 00 00       	mov    $0x3,%edi
    34803c45:	e8 c6 d5 ff ff       	callq  34801210 <randnum>
    34803c4a:	48 8b 3d 7f 4e b1 00 	mov    0xb14e7f(%rip),%rdi        # 35318ad0 <global_nnetstruct+0x10>
    34803c51:	e8 ba 00 00 00       	callq  34803d10 <DoNNetIteration>
    34803c56:	48 01 c3             	add    %rax,%rbx
    34803c59:	f3 0f 7e 05 6f 4e b1 	movq   0xb14e6f(%rip),%xmm0        # 35318ad0 <global_nnetstruct+0x10>
    34803c60:	00 
    34803c61:	66 0f 62 05 87 fb 00 	punpckldq 0xfb87(%rip),%xmm0        # 348137f0 <DoEmFloatIteration.jtable+0x8d0>
    34803c68:	00 
    34803c69:	66 0f 5c 05 8f fb 00 	subpd  0xfb8f(%rip),%xmm0        # 34813800 <DoEmFloatIteration.jtable+0x8e0>
    34803c70:	00 
    34803c71:	66 0f 70 c8 4e       	pshufd $0x4e,%xmm0,%xmm1
    34803c76:	66 0f 58 c8          	addpd  %xmm0,%xmm1
    34803c7a:	f2 0f 10 44 24 08    	movsd  0x8(%rsp),%xmm0
    34803c80:	f2 0f 58 c1          	addsd  %xmm1,%xmm0
    34803c84:	f2 0f 11 44 24 08    	movsd  %xmm0,0x8(%rsp)
    34803c8a:	48 89 df             	mov    %rbx,%rdi
    34803c8d:	e8 5e 33 00 00       	callq  34806ff0 <TicksToSecs>
    34803c92:	48 3b 05 2f 4e b1 00 	cmp    0xb14e2f(%rip),%rax        # 35318ac8 <global_nnetstruct+0x8>
    34803c99:	0f 82 a1 ff ff ff    	jb     34803c40 <__DoNNET+0x80>
    34803c9f:	48 89 df             	mov    %rbx,%rdi
    34803ca2:	e8 69 33 00 00       	callq  34807010 <TicksToFracSecs>
    34803ca7:	f2 0f 10 4c 24 08    	movsd  0x8(%rsp),%xmm1
    34803cad:	f2 0f 5e c8          	divsd  %xmm0,%xmm1
    34803cb1:	f2 0f 11 0d 1f 4e b1 	movsd  %xmm1,0xb14e1f(%rip)        # 35318ad8 <global_nnetstruct+0x18>
    34803cb8:	00 
    34803cb9:	48 89 df             	mov    %rbx,%rdi
    34803cbc:	e8 4f 33 00 00       	callq  34807010 <TicksToFracSecs>
    34803cc1:	f2 0f 5e 44 24 08    	divsd  0x8(%rsp),%xmm0
    34803cc7:	48 8d 5c 24 10       	lea    0x10(%rsp),%rbx
    34803ccc:	be ac 39 81 34       	mov    $0x348139ac,%esi
    34803cd1:	b0 01                	mov    $0x1,%al
    34803cd3:	48 89 df             	mov    %rbx,%rdi
    34803cd6:	e8 a5 85 00 00       	callq  3480c280 <sprintf>
    34803cdb:	48 89 df             	mov    %rbx,%rdi
    34803cde:	e8 dd 8b 00 00       	callq  3480c8c0 <puts>
    34803ce3:	83 3d d6 4d b1 00 00 	cmpl   $0x0,0xb14dd6(%rip)        # 35318ac0 <global_nnetstruct>
    34803cea:	0f 85 0a 00 00 00    	jne    34803cfa <__DoNNET+0x13a>
    34803cf0:	c7 05 c6 4d b1 00 01 	movl   $0x1,0xb14dc6(%rip)        # 35318ac0 <global_nnetstruct>
    34803cf7:	00 00 00 
    34803cfa:	48 83 c4 50          	add    $0x50,%rsp
    34803cfe:	5b                   	pop    %rbx
    34803cff:	c3                   	retq   

0000000034803d00 <DoNNETfromFile>:
    34803d00:	31 ff                	xor    %edi,%edi
    34803d02:	e9 b9 fe ff ff       	jmpq   34803bc0 <__DoNNET>
    34803d07:	66 0f 1f 84 00 00 00 	nopw   0x0(%rax,%rax,1)
    34803d0e:	00 00 

0000000034803d10 <DoNNetIteration>:
    34803d10:	41 54                	push   %r12
    34803d12:	53                   	push   %rbx
    34803d13:	50                   	push   %rax
    34803d14:	48 89 fb             	mov    %rdi,%rbx
    34803d17:	31 c0                	xor    %eax,%eax
    34803d19:	e8 b2 32 00 00       	callq  34806fd0 <StartStopwatch>
    34803d1e:	48 89 04 24          	mov    %rax,(%rsp)
    34803d22:	48 85 db             	test   %rbx,%rbx
    34803d25:	0f 84 9d 00 00 00    	je     34803dc8 <DoNNetIteration+0xb8>
    34803d2b:	0f 1f 44 00 00       	nopl   0x0(%rax,%rax,1)
    34803d30:	e8 eb 1e 00 00       	callq  34805c20 <randomize_wts>
    34803d35:	e8 06 20 00 00       	callq  34805d40 <zero_changes>
    34803d3a:	c7 05 78 a7 b1 00 01 	movl   $0x1,0xb1a778(%rip)        # 3531e4bc <iteration_count>
    34803d41:	00 00 00 
    34803d44:	c7 05 6a a7 b1 00 00 	movl   $0x0,0xb1a76a(%rip)        # 3531e4b8 <learned>
    34803d4b:	00 00 00 
    34803d4e:	c7 05 28 b0 b1 00 00 	movl   $0x0,0xb1b028(%rip)        # 3531ed80 <numpasses>
    34803d55:	00 00 00 
    34803d58:	0f 1f 84 00 00 00 00 	nopl   0x0(%rax,%rax,1)
    34803d5f:	00 
    34803d60:	83 3d f1 a6 b1 00 00 	cmpl   $0x0,0xb1a6f1(%rip)        # 3531e458 <numpats>
    34803d67:	0f 8e 39 00 00 00    	jle    34803da6 <DoNNetIteration+0x96>
    34803d6d:	45 31 e4             	xor    %r12d,%r12d
    34803d70:	48 c7 05 35 a7 b1 00 	movq   $0x0,0xb1a735(%rip)        # 3531e4b0 <worst_error>
    34803d77:	00 00 00 00 
    34803d7b:	e8 10 20 00 00       	callq  34805d90 <move_wt_changes>
    34803d80:	44 89 e7             	mov    %r12d,%edi
    34803d83:	e8 68 1e 00 00       	callq  34805bf0 <do_forward_pass>
    34803d88:	44 89 e7             	mov    %r12d,%edi
    34803d8b:	e8 70 1e 00 00       	callq  34805c00 <do_back_pass>
    34803d90:	ff 05 26 a7 b1 00    	incl   0xb1a726(%rip)        # 3531e4bc <iteration_count>
    34803d96:	41 ff c4             	inc    %r12d
    34803d99:	44 3b 25 b8 a6 b1 00 	cmp    0xb1a6b8(%rip),%r12d        # 3531e458 <numpats>
    34803da0:	0f 8c ca ff ff ff    	jl     34803d70 <DoNNetIteration+0x60>
    34803da6:	ff 05 d4 af b1 00    	incl   0xb1afd4(%rip)        # 3531ed80 <numpasses>
    34803dac:	e8 9f 24 00 00       	callq  34806250 <check_out_error>
    34803db1:	89 05 01 a7 b1 00    	mov    %eax,0xb1a701(%rip)        # 3531e4b8 <learned>
    34803db7:	85 c0                	test   %eax,%eax
    34803db9:	0f 84 a1 ff ff ff    	je     34803d60 <DoNNetIteration+0x50>
    34803dbf:	48 ff cb             	dec    %rbx
    34803dc2:	0f 85 68 ff ff ff    	jne    34803d30 <DoNNetIteration+0x20>
    34803dc8:	48 8b 3c 24          	mov    (%rsp),%rdi
    34803dcc:	48 83 c4 08          	add    $0x8,%rsp
    34803dd0:	5b                   	pop    %rbx
    34803dd1:	41 5c                	pop    %r12
    34803dd3:	e9 08 32 00 00       	jmpq   34806fe0 <StopStopwatch>
    34803dd8:	0f 1f 84 00 00 00 00 	nopl   0x0(%rax,%rax,1)
    34803ddf:	00 

0000000034803de0 <DoLU>:
    34803de0:	41 54                	push   %r12
    34803de2:	53                   	push   %rbx
    34803de3:	48 81 ec 88 00 00 00 	sub    $0x88,%rsp
    34803dea:	4c 8d 64 24 04       	lea    0x4(%rsp),%r12
    34803def:	bf c8 3e 01 00       	mov    $0x13ec8,%edi
    34803df4:	4c 89 e6             	mov    %r12,%rsi
    34803df7:	e8 c4 2e 00 00       	callq  34806cc0 <AllocateMemory>
    34803dfc:	48 89 c3             	mov    %rax,%rbx
    34803dff:	bf 28 03 00 00       	mov    $0x328,%edi
    34803e04:	4c 89 e6             	mov    %r12,%rsi
    34803e07:	e8 b4 2e 00 00       	callq  34806cc0 <AllocateMemory>
    34803e0c:	bf 28 03 00 00       	mov    $0x328,%edi
    34803e11:	4c 89 e6             	mov    %r12,%rsi
    34803e14:	49 89 dc             	mov    %rbx,%r12
    34803e17:	48 89 c3             	mov    %rax,%rbx
    34803e1a:	e8 a1 2e 00 00       	callq  34806cc0 <AllocateMemory>
    34803e1f:	48 89 05 2a a6 b1 00 	mov    %rax,0xb1a62a(%rip)        # 3531e450 <LUtempvv>
    34803e26:	4c 89 e7             	mov    %r12,%rdi
    34803e29:	48 89 de             	mov    %rbx,%rsi
    34803e2c:	e8 2f 03 00 00       	callq  34804160 <build_problem>
    34803e31:	83 3d 10 46 b1 00 00 	cmpl   $0x0,0xb14610(%rip)        # 35318448 <global_lustruct>
    34803e38:	48 89 5c 24 18       	mov    %rbx,0x18(%rsp)
    34803e3d:	4c 89 64 24 08       	mov    %r12,0x8(%rsp)
    34803e42:	0f 84 99 00 00 00    	je     34803ee1 <DoLU+0x101>
    34803e48:	48 69 3d 05 46 b1 00 	imul   $0x13ec8,0xb14605(%rip),%rdi        # 35318458 <global_lustruct+0x10>
    34803e4f:	c8 3e 01 00 
    34803e53:	48 8d 74 24 04       	lea    0x4(%rsp),%rsi
    34803e58:	e8 63 2e 00 00       	callq  34806cc0 <AllocateMemory>
    34803e5d:	48 89 c3             	mov    %rax,%rbx
    34803e60:	8b 74 24 04          	mov    0x4(%rsp),%esi
    34803e64:	85 f6                	test   %esi,%esi
    34803e66:	0f 84 22 00 00 00    	je     34803e8e <DoLU+0xae>
    34803e6c:	bf 49 3a 81 34       	mov    $0x34813a49,%edi
    34803e71:	e8 9a 30 00 00       	callq  34806f10 <ReportError>
    34803e76:	31 d2                	xor    %edx,%edx
    34803e78:	31 c9                	xor    %ecx,%ecx
    34803e7a:	4c 89 e7             	mov    %r12,%rdi
    34803e7d:	48 8b 74 24 18       	mov    0x18(%rsp),%rsi
    34803e82:	e8 89 04 00 00       	callq  34804310 <LUFreeMem>
    34803e87:	31 c0                	xor    %eax,%eax
    34803e89:	e8 32 31 00 00       	callq  34806fc0 <ErrorExit>
    34803e8e:	48 69 3d bf 45 b1 00 	imul   $0x328,0xb145bf(%rip),%rdi        # 35318458 <global_lustruct+0x10>
    34803e95:	28 03 00 00 
    34803e99:	48 8d 74 24 04       	lea    0x4(%rsp),%rsi
    34803e9e:	e8 1d 2e 00 00       	callq  34806cc0 <AllocateMemory>
    34803ea3:	48 89 44 24 20       	mov    %rax,0x20(%rsp)
    34803ea8:	8b 74 24 04          	mov    0x4(%rsp),%esi
    34803eac:	85 f6                	test   %esi,%esi
    34803eae:	48 89 5c 24 28       	mov    %rbx,0x28(%rsp)
    34803eb3:	0f 84 a3 01 00 00    	je     3480405c <DoLU+0x27c>
    34803eb9:	bf 49 3a 81 34       	mov    $0x34813a49,%edi
    34803ebe:	e8 4d 30 00 00       	callq  34806f10 <ReportError>
    34803ec3:	31 c9                	xor    %ecx,%ecx
    34803ec5:	4c 89 e7             	mov    %r12,%rdi
    34803ec8:	48 8b 74 24 18       	mov    0x18(%rsp),%rsi
    34803ecd:	48 89 da             	mov    %rbx,%rdx
    34803ed0:	e8 3b 04 00 00       	callq  34804310 <LUFreeMem>
    34803ed5:	31 c0                	xor    %eax,%eax
    34803ed7:	e8 e4 30 00 00       	callq  34806fc0 <ErrorExit>
    34803edc:	e9 7b 01 00 00       	jmpq   3480405c <DoLU+0x27c>
    34803ee1:	48 c7 05 6c 45 b1 00 	movq   $0x0,0xb1456c(%rip)        # 35318458 <global_lustruct+0x10>
    34803ee8:	00 00 00 00 
    34803eec:	41 bc 01 00 00 00    	mov    $0x1,%r12d
    34803ef2:	b9 90 7d 02 00       	mov    $0x27d90,%ecx
    34803ef7:	b8 50 06 00 00       	mov    $0x650,%eax
    34803efc:	48 89 44 24 10       	mov    %rax,0x10(%rsp)
    34803f01:	48 8d 5c 24 04       	lea    0x4(%rsp),%rbx
    34803f06:	66 2e 0f 1f 84 00 00 	nopw   %cs:0x0(%rax,%rax,1)
    34803f0d:	00 00 00 
    34803f10:	4c 89 64 24 38       	mov    %r12,0x38(%rsp)
    34803f15:	48 89 4c 24 30       	mov    %rcx,0x30(%rsp)
    34803f1a:	48 89 cf             	mov    %rcx,%rdi
    34803f1d:	48 89 de             	mov    %rbx,%rsi
    34803f20:	e8 9b 2d 00 00       	callq  34806cc0 <AllocateMemory>
    34803f25:	48 89 44 24 28       	mov    %rax,0x28(%rsp)
    34803f2a:	8b 74 24 04          	mov    0x4(%rsp),%esi
    34803f2e:	85 f6                	test   %esi,%esi
    34803f30:	4c 8b 64 24 18       	mov    0x18(%rsp),%r12
    34803f35:	0f 84 22 00 00 00    	je     34803f5d <DoLU+0x17d>
    34803f3b:	bf 49 3a 81 34       	mov    $0x34813a49,%edi
    34803f40:	e8 cb 2f 00 00       	callq  34806f10 <ReportError>
    34803f45:	31 d2                	xor    %edx,%edx
    34803f47:	31 c9                	xor    %ecx,%ecx
    34803f49:	48 8b 7c 24 08       	mov    0x8(%rsp),%rdi
    34803f4e:	4c 89 e6             	mov    %r12,%rsi
    34803f51:	e8 ba 03 00 00       	callq  34804310 <LUFreeMem>
    34803f56:	31 c0                	xor    %eax,%eax
    34803f58:	e8 63 30 00 00       	callq  34806fc0 <ErrorExit>
    34803f5d:	48 8b 7c 24 10       	mov    0x10(%rsp),%rdi
    34803f62:	48 89 de             	mov    %rbx,%rsi
    34803f65:	e8 56 2d 00 00       	callq  34806cc0 <AllocateMemory>
    34803f6a:	48 89 44 24 20       	mov    %rax,0x20(%rsp)
    34803f6f:	8b 74 24 04          	mov    0x4(%rsp),%esi
    34803f73:	85 f6                	test   %esi,%esi
    34803f75:	4c 89 e3             	mov    %r12,%rbx
    34803f78:	48 8b 7c 24 08       	mov    0x8(%rsp),%rdi
    34803f7d:	4c 8b 64 24 28       	mov    0x28(%rsp),%r12
    34803f82:	0f 84 28 00 00 00    	je     34803fb0 <DoLU+0x1d0>
    34803f88:	bf 49 3a 81 34       	mov    $0x34813a49,%edi
    34803f8d:	e8 7e 2f 00 00       	callq  34806f10 <ReportError>
    34803f92:	31 c9                	xor    %ecx,%ecx
    34803f94:	48 8b 7c 24 08       	mov    0x8(%rsp),%rdi
    34803f99:	48 89 de             	mov    %rbx,%rsi
    34803f9c:	4c 89 e2             	mov    %r12,%rdx
    34803f9f:	e8 6c 03 00 00       	callq  34804310 <LUFreeMem>
    34803fa4:	31 c0                	xor    %eax,%eax
    34803fa6:	e8 15 30 00 00       	callq  34806fc0 <ErrorExit>
    34803fab:	48 8b 7c 24 08       	mov    0x8(%rsp),%rdi
    34803fb0:	48 89 de             	mov    %rbx,%rsi
    34803fb3:	4c 89 e3             	mov    %r12,%rbx
    34803fb6:	4c 89 e2             	mov    %r12,%rdx
    34803fb9:	48 8b 4c 24 20       	mov    0x20(%rsp),%rcx
    34803fbe:	4c 8b 64 24 38       	mov    0x38(%rsp),%r12
    34803fc3:	4d 89 e0             	mov    %r12,%r8
    34803fc6:	e8 c5 03 00 00       	callq  34804390 <DoLUIteration>
    34803fcb:	48 3b 05 8e 4a b1 00 	cmp    0xb14a8e(%rip),%rax        # 35318a60 <global_min_ticks>
    34803fd2:	0f 87 7d 00 00 00    	ja     34804055 <DoLU+0x275>
    34803fd8:	49 ff c4             	inc    %r12
    34803fdb:	48 89 df             	mov    %rbx,%rdi
    34803fde:	48 8d 5c 24 04       	lea    0x4(%rsp),%rbx
    34803fe3:	48 89 de             	mov    %rbx,%rsi
    34803fe6:	e8 f5 2d 00 00       	callq  34806de0 <FreeMemory>
    34803feb:	48 8b 7c 24 20       	mov    0x20(%rsp),%rdi
    34803ff0:	48 89 de             	mov    %rbx,%rsi
    34803ff3:	e8 e8 2d 00 00       	callq  34806de0 <FreeMemory>
    34803ff8:	49 8d 44 24 ff       	lea    -0x1(%r12),%rax
    34803ffd:	48 8b 4c 24 30       	mov    0x30(%rsp),%rcx
    34804002:	48 81 c1 c8 3e 01 00 	add    $0x13ec8,%rcx
    34804009:	48 81 44 24 10 28 03 	addq   $0x328,0x10(%rsp)
    34804010:	00 00 
    34804012:	48 3d 10 27 00 00    	cmp    $0x2710,%rax
    34804018:	48 8b 44 24 20       	mov    0x20(%rsp),%rax
    3480401d:	0f 8c ed fe ff ff    	jl     34803f10 <DoLU+0x130>
    34804023:	48 83 3d 2d 44 b1 00 	cmpq   $0x0,0xb1442d(%rip)        # 35318458 <global_lustruct+0x10>
    3480402a:	00 
    3480402b:	0f 85 2b 00 00 00    	jne    3480405c <DoLU+0x27c>
    34804031:	bf 50 3a 81 34       	mov    $0x34813a50,%edi
    34804036:	48 89 c3             	mov    %rax,%rbx
    34804039:	e8 82 88 00 00       	callq  3480c8c0 <puts>
    3480403e:	48 8b 7c 24 08       	mov    0x8(%rsp),%rdi
    34804043:	48 8b 74 24 18       	mov    0x18(%rsp),%rsi
    34804048:	48 8b 54 24 28       	mov    0x28(%rsp),%rdx
    3480404d:	48 89 d9             	mov    %rbx,%rcx
    34804050:	e9 7b fe ff ff       	jmpq   34803ed0 <DoLU+0xf0>
    34804055:	4c 89 25 fc 43 b1 00 	mov    %r12,0xb143fc(%rip)        # 35318458 <global_lustruct+0x10>
    3480405c:	66 0f 57 c0          	xorpd  %xmm0,%xmm0
    34804060:	f2 0f 11 44 24 10    	movsd  %xmm0,0x10(%rsp)
    34804066:	31 db                	xor    %ebx,%ebx
    34804068:	4c 8b 64 24 08       	mov    0x8(%rsp),%r12
    3480406d:	0f 1f 00             	nopl   (%rax)
    34804070:	4c 8b 05 e1 43 b1 00 	mov    0xb143e1(%rip),%r8        # 35318458 <global_lustruct+0x10>
    34804077:	4c 89 e7             	mov    %r12,%rdi
    3480407a:	48 8b 74 24 18       	mov    0x18(%rsp),%rsi
    3480407f:	48 8b 54 24 28       	mov    0x28(%rsp),%rdx
    34804084:	48 8b 4c 24 20       	mov    0x20(%rsp),%rcx
    34804089:	e8 02 03 00 00       	callq  34804390 <DoLUIteration>
    3480408e:	48 01 c3             	add    %rax,%rbx
    34804091:	f3 0f 7e 05 bf 43 b1 	movq   0xb143bf(%rip),%xmm0        # 35318458 <global_lustruct+0x10>
    34804098:	00 
    34804099:	66 0f 62 05 4f f7 00 	punpckldq 0xf74f(%rip),%xmm0        # 348137f0 <DoEmFloatIteration.jtable+0x8d0>
    348040a0:	00 
    348040a1:	66 0f 5c 05 57 f7 00 	subpd  0xf757(%rip),%xmm0        # 34813800 <DoEmFloatIteration.jtable+0x8e0>
    348040a8:	00 
    348040a9:	66 0f 70 c8 4e       	pshufd $0x4e,%xmm0,%xmm1
    348040ae:	66 0f 58 c8          	addpd  %xmm0,%xmm1
    348040b2:	f2 0f 10 44 24 10    	movsd  0x10(%rsp),%xmm0
    348040b8:	f2 0f 58 c1          	addsd  %xmm1,%xmm0
    348040bc:	f2 0f 11 44 24 10    	movsd  %xmm0,0x10(%rsp)
    348040c2:	48 89 df             	mov    %rbx,%rdi
    348040c5:	e8 26 2f 00 00       	callq  34806ff0 <TicksToSecs>
    348040ca:	48 3b 05 7f 43 b1 00 	cmp    0xb1437f(%rip),%rax        # 35318450 <global_lustruct+0x8>
    348040d1:	0f 82 99 ff ff ff    	jb     34804070 <DoLU+0x290>
    348040d7:	48 89 df             	mov    %rbx,%rdi
    348040da:	e8 31 2f 00 00       	callq  34807010 <TicksToFracSecs>
    348040df:	f2 0f 10 4c 24 10    	movsd  0x10(%rsp),%xmm1
    348040e5:	f2 0f 5e c8          	divsd  %xmm0,%xmm1
    348040e9:	f2 0f 11 0d 6f 43 b1 	movsd  %xmm1,0xb1436f(%rip)        # 35318460 <global_lustruct+0x18>
    348040f0:	00 
    348040f1:	48 89 df             	mov    %rbx,%rdi
    348040f4:	e8 17 2f 00 00       	callq  34807010 <TicksToFracSecs>
    348040f9:	f2 0f 5e 44 24 10    	divsd  0x10(%rsp),%xmm0
    348040ff:	48 8d 5c 24 40       	lea    0x40(%rsp),%rbx
    34804104:	be ac 39 81 34       	mov    $0x348139ac,%esi
    34804109:	b0 01                	mov    $0x1,%al
    3480410b:	48 89 df             	mov    %rbx,%rdi
    3480410e:	e8 6d 81 00 00       	callq  3480c280 <sprintf>
    34804113:	48 89 df             	mov    %rbx,%rdi
    34804116:	e8 a5 87 00 00       	callq  3480c8c0 <puts>
    3480411b:	83 3d 26 43 b1 00 00 	cmpl   $0x0,0xb14326(%rip)        # 35318448 <global_lustruct>
    34804122:	0f 85 0a 00 00 00    	jne    34804132 <DoLU+0x352>
    34804128:	c7 05 16 43 b1 00 01 	movl   $0x1,0xb14316(%rip)        # 35318448 <global_lustruct>
    3480412f:	00 00 00 
    34804132:	48 8b 7c 24 08       	mov    0x8(%rsp),%rdi
    34804137:	48 8b 74 24 18       	mov    0x18(%rsp),%rsi
    3480413c:	48 8b 54 24 28       	mov    0x28(%rsp),%rdx
    34804141:	48 8b 4c 24 20       	mov    0x20(%rsp),%rcx
    34804146:	e8 c5 01 00 00       	callq  34804310 <LUFreeMem>
    3480414b:	48 81 c4 88 00 00 00 	add    $0x88,%rsp
    34804152:	5b                   	pop    %rbx
    34804153:	41 5c                	pop    %r12
    34804155:	c3                   	retq   
    34804156:	66 2e 0f 1f 84 00 00 	nopw   %cs:0x0(%rax,%rax,1)
    3480415d:	00 00 00 

0000000034804160 <build_problem>:
    34804160:	41 54                	push   %r12
    34804162:	53                   	push   %rbx
    34804163:	48 83 ec 18          	sub    $0x18,%rsp
    34804167:	48 89 74 24 08       	mov    %rsi,0x8(%rsp)
    3480416c:	48 89 fb             	mov    %rdi,%rbx
    3480416f:	bf 0d 00 00 00       	mov    $0xd,%edi
    34804174:	e8 97 d0 ff ff       	callq  34801210 <randnum>
    34804179:	31 c0                	xor    %eax,%eax
    3480417b:	48 89 5c 24 10       	mov    %rbx,0x10(%rsp)
    34804180:	48 89 04 24          	mov    %rax,(%rsp)
    34804184:	bf 64 00 00 00       	mov    $0x64,%edi
    34804189:	e8 02 d1 ff ff       	callq  34801290 <abs_randwc>
    3480418e:	ff c0                	inc    %eax
    34804190:	0f 57 c0             	xorps  %xmm0,%xmm0
    34804193:	f2 48 0f 2a c0       	cvtsi2sd %rax,%xmm0
    34804198:	48 8b 44 24 08       	mov    0x8(%rsp),%rax
    3480419d:	48 8b 0c 24          	mov    (%rsp),%rcx
    348041a1:	f2 0f 11 04 c8       	movsd  %xmm0,(%rax,%rcx,8)
    348041a6:	48 8b 04 24          	mov    (%rsp),%rax
    348041aa:	45 31 e4             	xor    %r12d,%r12d
    348041ad:	0f 1f 00             	nopl   (%rax)
    348041b0:	66 0f 57 c0          	xorpd  %xmm0,%xmm0
    348041b4:	4c 39 e0             	cmp    %r12,%rax
    348041b7:	0f 85 18 00 00 00    	jne    348041d5 <build_problem+0x75>
    348041bd:	bf e8 03 00 00       	mov    $0x3e8,%edi
    348041c2:	e8 c9 d0 ff ff       	callq  34801290 <abs_randwc>
    348041c7:	ff c0                	inc    %eax
    348041c9:	0f 57 c0             	xorps  %xmm0,%xmm0
    348041cc:	f2 48 0f 2a c0       	cvtsi2sd %rax,%xmm0
    348041d1:	48 8b 04 24          	mov    (%rsp),%rax
    348041d5:	f2 42 0f 11 04 e3    	movsd  %xmm0,(%rbx,%r12,8)
    348041db:	49 ff c4             	inc    %r12
    348041de:	49 83 fc 65          	cmp    $0x65,%r12
    348041e2:	0f 85 c8 ff ff ff    	jne    348041b0 <build_problem+0x50>
    348041e8:	48 ff c0             	inc    %rax
    348041eb:	48 81 c3 28 03 00 00 	add    $0x328,%rbx
    348041f2:	48 83 f8 65          	cmp    $0x65,%rax
    348041f6:	0f 85 84 ff ff ff    	jne    34804180 <build_problem+0x20>
    348041fc:	31 db                	xor    %ebx,%ebx
    348041fe:	66 90                	xchg   %ax,%ax
    34804200:	bf 65 00 00 00       	mov    $0x65,%edi
    34804205:	e8 86 d0 ff ff       	callq  34801290 <abs_randwc>
    3480420a:	41 89 c4             	mov    %eax,%r12d
    3480420d:	bf 65 00 00 00       	mov    $0x65,%edi
    34804212:	e8 79 d0 ff ff       	callq  34801290 <abs_randwc>
    34804217:	41 39 c4             	cmp    %eax,%r12d
    3480421a:	0f 84 d7 00 00 00    	je     348042f7 <build_problem+0x197>
    34804220:	45 89 e1             	mov    %r12d,%r9d
    34804223:	41 89 c0             	mov    %eax,%r8d
    34804226:	31 d2                	xor    %edx,%edx
    34804228:	45 39 c1             	cmp    %r8d,%r9d
    3480422b:	0f 92 c2             	setb   %dl
    3480422e:	f2 0f 10 04 d5 10 38 	movsd  0x34813810(,%rdx,8),%xmm0
    34804235:	81 34 
    34804237:	49 69 f9 28 03 00 00 	imul   $0x328,%r9,%rdi
    3480423e:	48 8b 4c 24 10       	mov    0x10(%rsp),%rcx
    34804243:	48 8d 14 39          	lea    (%rcx,%rdi,1),%rdx
    34804247:	49 69 c0 28 03 00 00 	imul   $0x328,%r8,%rax
    3480424e:	48 8d 34 01          	lea    (%rcx,%rax,1),%rsi
    34804252:	48 8d 84 01 28 03 00 	lea    0x328(%rcx,%rax,1),%rax
    34804259:	00 
    3480425a:	48 39 c2             	cmp    %rax,%rdx
    3480425d:	0f 83 1d 00 00 00    	jae    34804280 <build_problem+0x120>
    34804263:	48 8d 84 39 28 03 00 	lea    0x328(%rcx,%rdi,1),%rax
    3480426a:	00 
    3480426b:	48 39 c6             	cmp    %rax,%rsi
    3480426e:	0f 83 0c 00 00 00    	jae    34804280 <build_problem+0x120>
    34804274:	31 ff                	xor    %edi,%edi
    34804276:	e9 45 00 00 00       	jmpq   348042c0 <build_problem+0x160>
    3480427b:	0f 1f 44 00 00       	nopl   0x0(%rax,%rax,1)
    34804280:	0f 28 c8             	movaps %xmm0,%xmm1
    34804283:	0f 16 c9             	movlhps %xmm1,%xmm1
    34804286:	31 ff                	xor    %edi,%edi
    34804288:	0f 1f 84 00 00 00 00 	nopl   0x0(%rax,%rax,1)
    3480428f:	00 
    34804290:	66 0f 10 14 fe       	movupd (%rsi,%rdi,8),%xmm2
    34804295:	66 0f 59 d1          	mulpd  %xmm1,%xmm2
    34804299:	66 0f 10 1c fa       	movupd (%rdx,%rdi,8),%xmm3
    3480429e:	66 0f 58 da          	addpd  %xmm2,%xmm3
    348042a2:	66 0f 11 1c fa       	movupd %xmm3,(%rdx,%rdi,8)
    348042a7:	48 83 c7 02          	add    $0x2,%rdi
    348042ab:	48 83 ff 64          	cmp    $0x64,%rdi
    348042af:	0f 85 db ff ff ff    	jne    34804290 <build_problem+0x130>
    348042b5:	bf 64 00 00 00       	mov    $0x64,%edi
    348042ba:	66 0f 1f 44 00 00    	nopw   0x0(%rax,%rax,1)
    348042c0:	f2 0f 10 0c fe       	movsd  (%rsi,%rdi,8),%xmm1
    348042c5:	f2 0f 59 c8          	mulsd  %xmm0,%xmm1
    348042c9:	f2 0f 58 0c fa       	addsd  (%rdx,%rdi,8),%xmm1
    348042ce:	f2 0f 11 0c fa       	movsd  %xmm1,(%rdx,%rdi,8)
    348042d3:	48 ff c7             	inc    %rdi
    348042d6:	48 83 ff 65          	cmp    $0x65,%rdi
    348042da:	0f 85 e0 ff ff ff    	jne    348042c0 <build_problem+0x160>
    348042e0:	48 8b 44 24 08       	mov    0x8(%rsp),%rax
    348042e5:	f2 42 0f 59 04 c0    	mulsd  (%rax,%r8,8),%xmm0
    348042eb:	f2 42 0f 58 04 c8    	addsd  (%rax,%r9,8),%xmm0
    348042f1:	f2 42 0f 11 04 c8    	movsd  %xmm0,(%rax,%r9,8)
    348042f7:	48 ff c3             	inc    %rbx
    348042fa:	48 81 fb 28 03 00 00 	cmp    $0x328,%rbx
    34804301:	0f 85 f9 fe ff ff    	jne    34804200 <build_problem+0xa0>
    34804307:	48 83 c4 18          	add    $0x18,%rsp
    3480430b:	5b                   	pop    %rbx
    3480430c:	41 5c                	pop    %r12
    3480430e:	c3                   	retq   
    3480430f:	90                   	nop

0000000034804310 <LUFreeMem>:
    34804310:	41 54                	push   %r12
    34804312:	53                   	push   %rbx
    34804313:	48 83 ec 18          	sub    $0x18,%rsp
    34804317:	48 89 4c 24 10       	mov    %rcx,0x10(%rsp)
    3480431c:	48 89 54 24 08       	mov    %rdx,0x8(%rsp)
    34804321:	49 89 f4             	mov    %rsi,%r12
    34804324:	48 8d 5c 24 04       	lea    0x4(%rsp),%rbx
    34804329:	48 89 de             	mov    %rbx,%rsi
    3480432c:	e8 af 2a 00 00       	callq  34806de0 <FreeMemory>
    34804331:	4c 89 e7             	mov    %r12,%rdi
    34804334:	48 89 de             	mov    %rbx,%rsi
    34804337:	e8 a4 2a 00 00       	callq  34806de0 <FreeMemory>
    3480433c:	48 8b 3d 0d a1 b1 00 	mov    0xb1a10d(%rip),%rdi        # 3531e450 <LUtempvv>
    34804343:	48 89 de             	mov    %rbx,%rsi
    34804346:	e8 95 2a 00 00       	callq  34806de0 <FreeMemory>
    3480434b:	48 8b 7c 24 08       	mov    0x8(%rsp),%rdi
    34804350:	48 85 ff             	test   %rdi,%rdi
    34804353:	0f 84 0a 00 00 00    	je     34804363 <LUFreeMem+0x53>
    34804359:	48 8d 74 24 04       	lea    0x4(%rsp),%rsi
    3480435e:	e8 7d 2a 00 00       	callq  34806de0 <FreeMemory>
    34804363:	48 8b 7c 24 10       	mov    0x10(%rsp),%rdi
    34804368:	48 85 ff             	test   %rdi,%rdi
    3480436b:	0f 84 0a 00 00 00    	je     3480437b <LUFreeMem+0x6b>
    34804371:	48 8d 74 24 04       	lea    0x4(%rsp),%rsi
    34804376:	e8 65 2a 00 00       	callq  34806de0 <FreeMemory>
    3480437b:	48 83 c4 18          	add    $0x18,%rsp
    3480437f:	5b                   	pop    %rbx
    34804380:	41 5c                	pop    %r12
    34804382:	c3                   	retq   
    34804383:	66 66 66 66 2e 0f 1f 	data16 data16 data16 nopw %cs:0x0(%rax,%rax,1)
    3480438a:	84 00 00 00 00 00 

0000000034804390 <DoLUIteration>:
    34804390:	41 54                	push   %r12
    34804392:	53                   	push   %rbx
    34804393:	48 83 ec 28          	sub    $0x28,%rsp
    34804397:	4d 85 c0             	test   %r8,%r8
    3480439a:	0f 84 b3 01 00 00    	je     34804553 <DoLUIteration+0x1c3>
    348043a0:	4c 89 44 24 20       	mov    %r8,0x20(%rsp)
    348043a5:	48 8d 86 28 03 00 00 	lea    0x328(%rsi),%rax
    348043ac:	48 89 44 24 10       	mov    %rax,0x10(%rsp)
    348043b1:	4c 8d 8f c8 3e 01 00 	lea    0x13ec8(%rdi),%r9
    348043b8:	45 31 c0             	xor    %r8d,%r8d
    348043bb:	48 89 4c 24 18       	mov    %rcx,0x18(%rsp)
    348043c0:	49 89 cc             	mov    %rcx,%r12
    348043c3:	48 89 d0             	mov    %rdx,%rax
    348043c6:	48 89 54 24 08       	mov    %rdx,0x8(%rsp)
    348043cb:	0f 1f 44 00 00       	nopl   0x0(%rax,%rax,1)
    348043d0:	49 69 c8 c8 3e 01 00 	imul   $0x13ec8,%r8,%rcx
    348043d7:	4c 8d 1c 0a          	lea    (%rdx,%rcx,1),%r11
    348043db:	4d 69 d0 28 03 00 00 	imul   $0x328,%r8,%r10
    348043e2:	4d 39 cb             	cmp    %r9,%r11
    348043e5:	48 8b 5c 24 18       	mov    0x18(%rsp),%rbx
    348043ea:	0f 83 20 00 00 00    	jae    34804410 <DoLUIteration+0x80>
    348043f0:	48 8d 8c 0a c8 3e 01 	lea    0x13ec8(%rdx,%rcx,1),%rcx
    348043f7:	00 
    348043f8:	48 39 f9             	cmp    %rdi,%rcx
    348043fb:	0f 86 0f 00 00 00    	jbe    34804410 <DoLUIteration+0x80>
    34804401:	31 c9                	xor    %ecx,%ecx
    34804403:	e9 36 00 00 00       	jmpq   3480443e <DoLUIteration+0xae>
    34804408:	0f 1f 84 00 00 00 00 	nopl   0x0(%rax,%rax,1)
    3480440f:	00 
    34804410:	31 c9                	xor    %ecx,%ecx
    34804412:	66 66 66 66 66 2e 0f 	data16 data16 data16 data16 nopw %cs:0x0(%rax,%rax,1)
    34804419:	1f 84 00 00 00 00 00 
    34804420:	0f 10 04 cf          	movups (%rdi,%rcx,8),%xmm0
    34804424:	0f 11 04 c8          	movups %xmm0,(%rax,%rcx,8)
    34804428:	48 83 c1 02          	add    $0x2,%rcx
    3480442c:	48 81 f9 d8 27 00 00 	cmp    $0x27d8,%rcx
    34804433:	0f 85 e7 ff ff ff    	jne    34804420 <DoLUIteration+0x90>
    34804439:	b9 d8 27 00 00       	mov    $0x27d8,%ecx
    3480443e:	4e 8d 1c 13          	lea    (%rbx,%r10,1),%r11
    34804442:	4e 8d 94 13 28 03 00 	lea    0x328(%rbx,%r10,1),%r10
    34804449:	00 
    3480444a:	66 0f 1f 44 00 00    	nopw   0x0(%rax,%rax,1)
    34804450:	48 8b 14 cf          	mov    (%rdi,%rcx,8),%rdx
    34804454:	48 89 14 c8          	mov    %rdx,(%rax,%rcx,8)
    34804458:	48 ff c1             	inc    %rcx
    3480445b:	48 81 f9 d9 27 00 00 	cmp    $0x27d9,%rcx
    34804462:	0f 85 e8 ff ff ff    	jne    34804450 <DoLUIteration+0xc0>
    34804468:	4c 3b 5c 24 10       	cmp    0x10(%rsp),%r11
    3480446d:	0f 83 1d 00 00 00    	jae    34804490 <DoLUIteration+0x100>
    34804473:	49 39 f2             	cmp    %rsi,%r10
    34804476:	0f 86 14 00 00 00    	jbe    34804490 <DoLUIteration+0x100>
    3480447c:	31 c9                	xor    %ecx,%ecx
    3480447e:	48 8b 54 24 08       	mov    0x8(%rsp),%rdx
    34804483:	e9 38 00 00 00       	jmpq   348044c0 <DoLUIteration+0x130>
    34804488:	0f 1f 84 00 00 00 00 	nopl   0x0(%rax,%rax,1)
    3480448f:	00 
    34804490:	31 c9                	xor    %ecx,%ecx
    34804492:	48 8b 54 24 08       	mov    0x8(%rsp),%rdx
    34804497:	66 0f 1f 84 00 00 00 	nopw   0x0(%rax,%rax,1)
    3480449e:	00 00 
    348044a0:	0f 10 04 ce          	movups (%rsi,%rcx,8),%xmm0
    348044a4:	41 0f 11 04 cc       	movups %xmm0,(%r12,%rcx,8)
    348044a9:	48 83 c1 02          	add    $0x2,%rcx
    348044ad:	48 83 f9 64          	cmp    $0x64,%rcx
    348044b1:	0f 85 e9 ff ff ff    	jne    348044a0 <DoLUIteration+0x110>
    348044b7:	b9 64 00 00 00       	mov    $0x64,%ecx
    348044bc:	0f 1f 40 00          	nopl   0x0(%rax)
    348044c0:	48 8b 1c ce          	mov    (%rsi,%rcx,8),%rbx
    348044c4:	49 89 1c cc          	mov    %rbx,(%r12,%rcx,8)
    348044c8:	48 ff c1             	inc    %rcx
    348044cb:	48 83 f9 65          	cmp    $0x65,%rcx
    348044cf:	0f 85 eb ff ff ff    	jne    348044c0 <DoLUIteration+0x130>
    348044d5:	49 ff c0             	inc    %r8
    348044d8:	48 05 c8 3e 01 00    	add    $0x13ec8,%rax
    348044de:	49 81 c4 28 03 00 00 	add    $0x328,%r12
    348044e5:	4c 3b 44 24 20       	cmp    0x20(%rsp),%r8
    348044ea:	0f 85 e0 fe ff ff    	jne    348043d0 <DoLUIteration+0x40>
    348044f0:	31 c0                	xor    %eax,%eax
    348044f2:	e8 d9 2a 00 00       	callq  34806fd0 <StartStopwatch>
    348044f7:	48 89 c7             	mov    %rax,%rdi
    348044fa:	48 8b 5c 24 20       	mov    0x20(%rsp),%rbx
    348044ff:	48 85 db             	test   %rbx,%rbx
    34804502:	0f 84 55 00 00 00    	je     3480455d <DoLUIteration+0x1cd>
    34804508:	48 89 7c 24 10       	mov    %rdi,0x10(%rsp)
    3480450d:	48 8b 7c 24 08       	mov    0x8(%rsp),%rdi
    34804512:	4c 8b 64 24 18       	mov    0x18(%rsp),%r12
    34804517:	66 0f 1f 84 00 00 00 	nopw   0x0(%rax,%rax,1)
    3480451e:	00 00 
    34804520:	48 89 7c 24 08       	mov    %rdi,0x8(%rsp)
    34804525:	4c 89 e6             	mov    %r12,%rsi
    34804528:	e8 f3 21 00 00       	callq  34806720 <lusolve>
    3480452d:	48 8b 7c 24 08       	mov    0x8(%rsp),%rdi
    34804532:	49 81 c4 28 03 00 00 	add    $0x328,%r12
    34804539:	48 81 c7 c8 3e 01 00 	add    $0x13ec8,%rdi
    34804540:	48 ff cb             	dec    %rbx
    34804543:	0f 85 d7 ff ff ff    	jne    34804520 <DoLUIteration+0x190>
    34804549:	48 8b 7c 24 10       	mov    0x10(%rsp),%rdi
    3480454e:	e9 0a 00 00 00       	jmpq   3480455d <DoLUIteration+0x1cd>
    34804553:	31 c0                	xor    %eax,%eax
    34804555:	e8 76 2a 00 00       	callq  34806fd0 <StartStopwatch>
    3480455a:	48 89 c7             	mov    %rax,%rdi
    3480455d:	48 83 c4 28          	add    $0x28,%rsp
    34804561:	5b                   	pop    %rbx
    34804562:	41 5c                	pop    %r12
    34804564:	e9 77 2a 00 00       	jmpq   34806fe0 <StopStopwatch>
    34804569:	0f 1f 80 00 00 00 00 	nopl   0x0(%rax)

0000000034804570 <LoadNumArrayWithRand>:
    34804570:	41 54                	push   %r12
    34804572:	53                   	push   %rbx
    34804573:	48 83 ec 18          	sub    $0x18,%rsp
    34804577:	89 54 24 08          	mov    %edx,0x8(%rsp)
    3480457b:	48 89 f3             	mov    %rsi,%rbx
    3480457e:	48 89 3c 24          	mov    %rdi,(%rsp)
    34804582:	bf 0d 00 00 00       	mov    $0xd,%edi
    34804587:	e8 84 cc ff ff       	callq  34801210 <randnum>
    3480458c:	48 89 5c 24 10       	mov    %rbx,0x10(%rsp)
    34804591:	48 85 db             	test   %rbx,%rbx
    34804594:	0f 84 2f 00 00 00    	je     348045c9 <LoadNumArrayWithRand+0x59>
    3480459a:	4c 8b 64 24 10       	mov    0x10(%rsp),%r12
    3480459f:	48 8b 1c 24          	mov    (%rsp),%rbx
    348045a3:	66 66 66 66 2e 0f 1f 	data16 data16 data16 nopw %cs:0x0(%rax,%rax,1)
    348045aa:	84 00 00 00 00 00 
    348045b0:	31 ff                	xor    %edi,%edi
    348045b2:	e8 59 cc ff ff       	callq  34801210 <randnum>
    348045b7:	48 98                	cltq   
    348045b9:	48 89 03             	mov    %rax,(%rbx)
    348045bc:	48 83 c3 08          	add    $0x8,%rbx
    348045c0:	49 ff cc             	dec    %r12
    348045c3:	0f 85 e7 ff ff ff    	jne    348045b0 <LoadNumArrayWithRand+0x40>
    348045c9:	8b 44 24 08          	mov    0x8(%rsp),%eax
    348045cd:	ff c8                	dec    %eax
    348045cf:	4c 8b 64 24 10       	mov    0x10(%rsp),%r12
    348045d4:	0f 84 e8 00 00 00    	je     348046c2 <LoadNumArrayWithRand+0x152>
    348045da:	4b 8d 0c 24          	lea    (%r12,%r12,1),%rcx
    348045de:	48 89 4c 24 08       	mov    %rcx,0x8(%rsp)
    348045e3:	48 8b 0c 24          	mov    (%rsp),%rcx
    348045e7:	4e 8d 14 e1          	lea    (%rcx,%r12,8),%r10
    348045eb:	4e 8d 1c e5 00 00 00 	lea    0x0(,%r12,8),%r11
    348045f2:	00 
    348045f3:	4d 89 e1             	mov    %r12,%r9
    348045f6:	49 83 e1 fe          	and    $0xfffffffffffffffe,%r9
    348045fa:	31 ff                	xor    %edi,%edi
    348045fc:	4c 89 da             	mov    %r11,%rdx
    348045ff:	e9 3c 00 00 00       	jmpq   34804640 <LoadNumArrayWithRand+0xd0>
    34804604:	4c 89 c9             	mov    %r9,%rcx
    34804607:	66 0f 1f 84 00 00 00 	nopw   0x0(%rax,%rax,1)
    3480460e:	00 00 
    34804610:	41 0f 10 00          	movups (%r8),%xmm0
    34804614:	41 0f 11 04 10       	movups %xmm0,(%r8,%rdx,1)
    34804619:	49 83 c0 10          	add    $0x10,%r8
    3480461d:	48 83 c1 fe          	add    $0xfffffffffffffffe,%rcx
    34804621:	0f 85 e9 ff ff ff    	jne    34804610 <LoadNumArrayWithRand+0xa0>
    34804627:	4c 39 e6             	cmp    %r12,%rsi
    3480462a:	0f 84 84 00 00 00    	je     348046b4 <LoadNumArrayWithRand+0x144>
    34804630:	e9 5d 00 00 00       	jmpq   34804692 <LoadNumArrayWithRand+0x122>
    34804635:	66 66 2e 0f 1f 84 00 	data16 nopw %cs:0x0(%rax,%rax,1)
    3480463c:	00 00 00 00 
    34804640:	4d 85 e4             	test   %r12,%r12
    34804643:	0f 84 6b 00 00 00    	je     348046b4 <LoadNumArrayWithRand+0x144>
    34804649:	49 83 fc 01          	cmp    $0x1,%r12
    3480464d:	0f 84 3d 00 00 00    	je     34804690 <LoadNumArrayWithRand+0x120>
    34804653:	4c 89 e6             	mov    %r12,%rsi
    34804656:	48 83 e6 fe          	and    $0xfffffffffffffffe,%rsi
    3480465a:	0f 84 30 00 00 00    	je     34804690 <LoadNumArrayWithRand+0x120>
    34804660:	48 89 f9             	mov    %rdi,%rcx
    34804663:	49 0f af cc          	imul   %r12,%rcx
    34804667:	4a 8d 1c 21          	lea    (%rcx,%r12,1),%rbx
    3480466b:	4c 8b 04 24          	mov    (%rsp),%r8
    3480466f:	49 8d 1c d8          	lea    (%r8,%rbx,8),%rbx
    34804673:	4c 39 d3             	cmp    %r10,%rbx
    34804676:	0f 83 88 ff ff ff    	jae    34804604 <LoadNumArrayWithRand+0x94>
    3480467c:	48 03 4c 24 08       	add    0x8(%rsp),%rcx
    34804681:	49 8d 0c c8          	lea    (%r8,%rcx,8),%rcx
    34804685:	4c 39 c1             	cmp    %r8,%rcx
    34804688:	0f 86 76 ff ff ff    	jbe    34804604 <LoadNumArrayWithRand+0x94>
    3480468e:	66 90                	xchg   %ax,%ax
    34804690:	31 f6                	xor    %esi,%esi
    34804692:	48 8b 0c 24          	mov    (%rsp),%rcx
    34804696:	48 8d 1c f1          	lea    (%rcx,%rsi,8),%rbx
    3480469a:	4c 89 e1             	mov    %r12,%rcx
    3480469d:	48 29 f1             	sub    %rsi,%rcx
    348046a0:	48 8b 33             	mov    (%rbx),%rsi
    348046a3:	48 89 34 13          	mov    %rsi,(%rbx,%rdx,1)
    348046a7:	48 83 c3 08          	add    $0x8,%rbx
    348046ab:	48 ff c9             	dec    %rcx
    348046ae:	0f 85 ec ff ff ff    	jne    348046a0 <LoadNumArrayWithRand+0x130>
    348046b4:	48 ff c7             	inc    %rdi
    348046b7:	4c 01 da             	add    %r11,%rdx
    348046ba:	ff c8                	dec    %eax
    348046bc:	0f 85 7e ff ff ff    	jne    34804640 <LoadNumArrayWithRand+0xd0>
    348046c2:	48 83 c4 18          	add    $0x18,%rsp
    348046c6:	5b                   	pop    %rbx
    348046c7:	41 5c                	pop    %r12
    348046c9:	c3                   	retq   
    348046ca:	66 0f 1f 44 00 00    	nopw   0x0(%rax,%rax,1)

00000000348046d0 <NumHeapSort>:
    348046d0:	41 54                	push   %r12
    348046d2:	53                   	push   %rbx
    348046d3:	50                   	push   %rax
    348046d4:	48 89 f3             	mov    %rsi,%rbx
    348046d7:	49 89 dc             	mov    %rbx,%r12
    348046da:	49 d1 ec             	shr    %r12
    348046dd:	0f 84 29 00 00 00    	je     3480470c <NumHeapSort+0x3c>
    348046e3:	48 89 3c 24          	mov    %rdi,(%rsp)
    348046e7:	66 0f 1f 84 00 00 00 	nopw   0x0(%rax,%rax,1)
    348046ee:	00 00 
    348046f0:	48 8b 3c 24          	mov    (%rsp),%rdi
    348046f4:	4c 89 e6             	mov    %r12,%rsi
    348046f7:	48 89 da             	mov    %rbx,%rdx
    348046fa:	e8 31 d3 ff ff       	callq  34801a30 <NumSift>
    348046ff:	48 8b 3c 24          	mov    (%rsp),%rdi
    34804703:	49 ff cc             	dec    %r12
